
cl-osd.elf:     file format elf32-avr

Sections:
Idx Name          Size      VMA       LMA       File off  Algn
  0 .data         00000072  00800100  00001b34  00001be8  2**0
                  CONTENTS, ALLOC, LOAD, DATA
  1 .text         00001b34  00000000  00000000  000000b4  2**1
                  CONTENTS, ALLOC, LOAD, READONLY, CODE
  2 .bss          000002d3  00800172  00800172  00001c5a  2**0
                  ALLOC
  3 .eeprom       00000200  00810000  00810000  00001c5a  2**0
                  CONTENTS, ALLOC, LOAD, READONLY, DATA
  4 .stab         00000960  00000000  00000000  00001e5c  2**2
                  CONTENTS, READONLY, DEBUGGING
  5 .stabstr      000001db  00000000  00000000  000027bc  2**0
                  CONTENTS, READONLY, DEBUGGING
  6 .debug_aranges 000000a8  00000000  00000000  00002997  2**0
                  CONTENTS, READONLY, DEBUGGING
  7 .debug_pubnames 0000003a  00000000  00000000  00002a3f  2**0
                  CONTENTS, READONLY, DEBUGGING
  8 .debug_info   000019f3  00000000  00000000  00002a79  2**0
                  CONTENTS, READONLY, DEBUGGING
  9 .debug_abbrev 00000375  00000000  00000000  0000446c  2**0
                  CONTENTS, READONLY, DEBUGGING
 10 .debug_line   0000184d  00000000  00000000  000047e1  2**0
                  CONTENTS, READONLY, DEBUGGING
 11 .debug_frame  00000130  00000000  00000000  00006030  2**2
                  CONTENTS, READONLY, DEBUGGING
 12 .debug_str    0000081f  00000000  00000000  00006160  2**0
                  CONTENTS, READONLY, DEBUGGING
 13 .debug_loc    00001903  00000000  00000000  0000697f  2**0
                  CONTENTS, READONLY, DEBUGGING
 14 .debug_macinfo 0000baed  00000000  00000000  00008282  2**0
                  CONTENTS, READONLY, DEBUGGING
 15 .debug_pubtypes 0000008f  00000000  00000000  00013d6f  2**0
                  CONTENTS, READONLY, DEBUGGING
 16 .debug_ranges 00000250  00000000  00000000  00013dfe  2**0
                  CONTENTS, READONLY, DEBUGGING

Disassembly of section .text:

00000000 <__vectors>:
       0:	47 c0       	rjmp	.+142    	; 0x90 <__ctors_end>
       2:	87 cb       	rjmp	.-2290   	; 0xfffff712 <__eeprom_end+0xff7ef512>
       4:	60 c0       	rjmp	.+192    	; 0xc6 <__bad_interrupt>
       6:	5f c0       	rjmp	.+190    	; 0xc6 <__bad_interrupt>
       8:	5e c0       	rjmp	.+188    	; 0xc6 <__bad_interrupt>
       a:	5d c0       	rjmp	.+186    	; 0xc6 <__bad_interrupt>
       c:	5c c0       	rjmp	.+184    	; 0xc6 <__bad_interrupt>
       e:	5b c0       	rjmp	.+182    	; 0xc6 <__bad_interrupt>
      10:	5a c0       	rjmp	.+180    	; 0xc6 <__bad_interrupt>
      12:	59 c0       	rjmp	.+178    	; 0xc6 <__bad_interrupt>
      14:	58 c0       	rjmp	.+176    	; 0xc6 <__bad_interrupt>
      16:	57 c0       	rjmp	.+174    	; 0xc6 <__bad_interrupt>
      18:	56 c0       	rjmp	.+172    	; 0xc6 <__bad_interrupt>
      1a:	9f cc       	rjmp	.-1730   	; 0xfffff95a <__eeprom_end+0xff7ef75a>
      1c:	54 c0       	rjmp	.+168    	; 0xc6 <__bad_interrupt>
      1e:	53 c0       	rjmp	.+166    	; 0xc6 <__bad_interrupt>
      20:	52 c0       	rjmp	.+164    	; 0xc6 <__bad_interrupt>
      22:	51 c0       	rjmp	.+162    	; 0xc6 <__bad_interrupt>
      24:	50 c0       	rjmp	.+160    	; 0xc6 <__bad_interrupt>
      26:	4f c0       	rjmp	.+158    	; 0xc6 <__bad_interrupt>
      28:	4e c0       	rjmp	.+156    	; 0xc6 <__bad_interrupt>
      2a:	4d c0       	rjmp	.+154    	; 0xc6 <__bad_interrupt>
      2c:	4c c0       	rjmp	.+152    	; 0xc6 <__bad_interrupt>
      2e:	4b c0       	rjmp	.+150    	; 0xc6 <__bad_interrupt>
      30:	4a c0       	rjmp	.+148    	; 0xc6 <__bad_interrupt>
      32:	49 c0       	rjmp	.+146    	; 0xc6 <__bad_interrupt>

00000034 <sinData>:
      34:	00 02 03 05 07 09 0a 0c 0e 10 11 13 15 16 18 1a     ................
      44:	1c 1d 1f 21 22 24 25 27 29 2a 2c 2d 2f 30 32 34     ...!"$%')*,-/024
      54:	35 36 38 39 3b 3c 3e 3f 40 42 43 44 45 47 48 49     5689;<>?@BCDEGHI
      64:	4a 4b 4d 4e 4f 50 51 52 53 54 55 56 57 57 58 59     JKMNOPQRSTUVWWXY
      74:	5a 5b 5b 5c 5d 5d 5e 5f 5f 60 60 61 61 61 62 62     Z[[\]]^__``aaabb
      84:	62 63 63 63 63 64 64 64 64 64 64 00                 bccccdddddd.

00000090 <__ctors_end>:
      90:	11 24       	eor	r1, r1
      92:	1f be       	out	0x3f, r1	; 63
      94:	cf ef       	ldi	r28, 0xFF	; 255
      96:	d4 e0       	ldi	r29, 0x04	; 4
      98:	de bf       	out	0x3e, r29	; 62
      9a:	cd bf       	out	0x3d, r28	; 61

0000009c <__do_copy_data>:
      9c:	11 e0       	ldi	r17, 0x01	; 1
      9e:	a0 e0       	ldi	r26, 0x00	; 0
      a0:	b1 e0       	ldi	r27, 0x01	; 1
      a2:	e4 e3       	ldi	r30, 0x34	; 52
      a4:	fb e1       	ldi	r31, 0x1B	; 27
      a6:	02 c0       	rjmp	.+4      	; 0xac <__do_copy_data+0x10>
      a8:	05 90       	lpm	r0, Z+
      aa:	0d 92       	st	X+, r0
      ac:	a2 37       	cpi	r26, 0x72	; 114
      ae:	b1 07       	cpc	r27, r17
      b0:	d9 f7       	brne	.-10     	; 0xa8 <__do_copy_data+0xc>

000000b2 <__do_clear_bss>:
      b2:	14 e0       	ldi	r17, 0x04	; 4
      b4:	a2 e7       	ldi	r26, 0x72	; 114
      b6:	b1 e0       	ldi	r27, 0x01	; 1
      b8:	01 c0       	rjmp	.+2      	; 0xbc <.do_clear_bss_start>

000000ba <.do_clear_bss_loop>:
      ba:	1d 92       	st	X+, r1

000000bc <.do_clear_bss_start>:
      bc:	a5 34       	cpi	r26, 0x45	; 69
      be:	b1 07       	cpc	r27, r17
      c0:	e1 f7       	brne	.-8      	; 0xba <.do_clear_bss_loop>
      c2:	fa d4       	rcall	.+2548   	; 0xab8 <main>
      c4:	35 cd       	rjmp	.-1430   	; 0xfffffb30 <__eeprom_end+0xff7ef930>

000000c6 <__bad_interrupt>:
      c6:	9c cf       	rjmp	.-200    	; 0x0 <__vectors>

000000c8 <mySin>:
  85, 86, 87, 87, 88, 89, 90, 91, 91, 92, 93, 93, 94, 95, 95, 96, 96, 97, 97,
  97, 98, 98, 98, 99, 99, 99, 99, 100, 100, 100, 100, 100, 100};

static int8_t mySin(uint16_t angle) {
	uint16_t pos = 0;
	pos = angle % 360;
      c8:	68 e6       	ldi	r22, 0x68	; 104
      ca:	71 e0       	ldi	r23, 0x01	; 1
      cc:	94 dc       	rcall	.-1752   	; 0xfffff9f6 <__eeprom_end+0xff7ef7f6>
	int8_t mult = 1;
	// 180-359 is same as 0-179 but negative.
	if (pos >= 180) { 
      ce:	84 3b       	cpi	r24, 0xB4	; 180
      d0:	91 05       	cpc	r25, r1
      d2:	20 f0       	brcs	.+8      	; 0xdc <mySin+0x14>
		pos = pos - 180;
      d4:	84 5b       	subi	r24, 0xB4	; 180
      d6:	90 40       	sbci	r25, 0x00	; 0
		mult = -1;
      d8:	4f ef       	ldi	r20, 0xFF	; 255
      da:	01 c0       	rjmp	.+2      	; 0xde <mySin+0x16>
  97, 98, 98, 98, 99, 99, 99, 99, 100, 100, 100, 100, 100, 100};

static int8_t mySin(uint16_t angle) {
	uint16_t pos = 0;
	pos = angle % 360;
	int8_t mult = 1;
      dc:	41 e0       	ldi	r20, 0x01	; 1
	if (pos >= 180) { 
		pos = pos - 180;
		mult = -1;
	}
	// 0-89 is equal to 90-179 except backwards.
	if (pos >= 90) { 
      de:	8a 35       	cpi	r24, 0x5A	; 90
      e0:	91 05       	cpc	r25, r1
      e2:	30 f0       	brcs	.+12     	; 0xf0 <mySin+0x28>
		pos = 180 - pos;
      e4:	24 eb       	ldi	r18, 0xB4	; 180
      e6:	30 e0       	ldi	r19, 0x00	; 0
      e8:	b9 01       	movw	r22, r18
      ea:	68 1b       	sub	r22, r24
      ec:	79 0b       	sbc	r23, r25
      ee:	cb 01       	movw	r24, r22
	}
	return mult * (int8_t)(pgm_read_byte(&sinData[pos]));
      f0:	fc 01       	movw	r30, r24
      f2:	ec 5c       	subi	r30, 0xCC	; 204
      f4:	ff 4f       	sbci	r31, 0xFF	; 255
      f6:	84 91       	lpm	r24, Z+
}
      f8:	84 9f       	mul	r24, r20
      fa:	80 2d       	mov	r24, r0
      fc:	11 24       	eor	r1, r1
      fe:	08 95       	ret

00000100 <wgs84ToSec100>:
  uint8_t checksumValid;
} TGpsData;

// Convert nmea WGS84 to seconds * 100
// wgs84 = DDMM[.]MMMM
static int32_t wgs84ToSec100(int32_t wgs84) { 
     100:	2f 92       	push	r2
     102:	3f 92       	push	r3
     104:	4f 92       	push	r4
     106:	5f 92       	push	r5
     108:	6f 92       	push	r6
     10a:	7f 92       	push	r7
     10c:	8f 92       	push	r8
     10e:	9f 92       	push	r9
     110:	af 92       	push	r10
     112:	bf 92       	push	r11
     114:	cf 92       	push	r12
     116:	df 92       	push	r13
     118:	ef 92       	push	r14
     11a:	ff 92       	push	r15
     11c:	0f 93       	push	r16
     11e:	1f 93       	push	r17
     120:	df 93       	push	r29
     122:	cf 93       	push	r28
     124:	00 d0       	rcall	.+0      	; 0x126 <wgs84ToSec100+0x26>
     126:	00 d0       	rcall	.+0      	; 0x128 <wgs84ToSec100+0x28>
     128:	0f 92       	push	r0
     12a:	cd b7       	in	r28, 0x3d	; 61
     12c:	de b7       	in	r29, 0x3e	; 62
     12e:	7b 01       	movw	r14, r22
     130:	8c 01       	movw	r16, r24
  int8_t mult = 1;
  
  if (wgs84 < 0) {
     132:	97 ff       	sbrs	r25, 7
     134:	0b c0       	rjmp	.+22     	; 0x14c <wgs84ToSec100+0x4c>
    mult = -1;
    wgs84 = -wgs84;
     136:	10 95       	com	r17
     138:	00 95       	com	r16
     13a:	f0 94       	com	r15
     13c:	e0 94       	com	r14
     13e:	e1 1c       	adc	r14, r1
     140:	f1 1c       	adc	r15, r1
     142:	01 1d       	adc	r16, r1
     144:	11 1d       	adc	r17, r1
// wgs84 = DDMM[.]MMMM
static int32_t wgs84ToSec100(int32_t wgs84) { 
  int8_t mult = 1;
  
  if (wgs84 < 0) {
    mult = -1;
     146:	8f ef       	ldi	r24, 0xFF	; 255
     148:	89 83       	std	Y+1, r24	; 0x01
     14a:	02 c0       	rjmp	.+4      	; 0x150 <wgs84ToSec100+0x50>
} TGpsData;

// Convert nmea WGS84 to seconds * 100
// wgs84 = DDMM[.]MMMM
static int32_t wgs84ToSec100(int32_t wgs84) { 
  int8_t mult = 1;
     14c:	e1 e0       	ldi	r30, 0x01	; 1
     14e:	e9 83       	std	Y+1, r30	; 0x01
  if (wgs84 < 0) {
    mult = -1;
    wgs84 = -wgs84;
  }
  
  uint8_t hour = wgs84 / 1000000; //Get hour part
     150:	c8 01       	movw	r24, r16
     152:	b7 01       	movw	r22, r14
     154:	20 e4       	ldi	r18, 0x40	; 64
     156:	32 e4       	ldi	r19, 0x42	; 66
     158:	4f e0       	ldi	r20, 0x0F	; 15
     15a:	50 e0       	ldi	r21, 0x00	; 0
     15c:	95 dc       	rcall	.-1750   	; 0xfffffa88 <__eeprom_end+0xff7ef888>
  uint8_t min = (wgs84 - (hour * 1000000)) / 10000; //Get minute part
     15e:	a2 2e       	mov	r10, r18
     160:	bb 24       	eor	r11, r11
     162:	cc 24       	eor	r12, r12
     164:	dd 24       	eor	r13, r13
  uint32_t minDecimal = wgs84 % 10000; //Get minute decimal part
     166:	80 e1       	ldi	r24, 0x10	; 16
     168:	68 2e       	mov	r6, r24
     16a:	87 e2       	ldi	r24, 0x27	; 39
     16c:	78 2e       	mov	r7, r24
     16e:	81 2c       	mov	r8, r1
     170:	91 2c       	mov	r9, r1
     172:	c8 01       	movw	r24, r16
     174:	b7 01       	movw	r22, r14
     176:	a4 01       	movw	r20, r8
     178:	93 01       	movw	r18, r6
     17a:	86 dc       	rcall	.-1780   	; 0xfffffa88 <__eeprom_end+0xff7ef888>
     17c:	6a 83       	std	Y+2, r22	; 0x02
     17e:	7b 83       	std	Y+3, r23	; 0x03
     180:	8c 83       	std	Y+4, r24	; 0x04
     182:	9d 83       	std	Y+5, r25	; 0x05
  
  int32_t sec100 = 0;
  sec100 += hour; // Add hour part
  sec100 *= 60;
     184:	c6 01       	movw	r24, r12
     186:	b5 01       	movw	r22, r10
     188:	2c e3       	ldi	r18, 0x3C	; 60
     18a:	30 e0       	ldi	r19, 0x00	; 0
     18c:	40 e0       	ldi	r20, 0x00	; 0
     18e:	50 e0       	ldi	r21, 0x00	; 0
     190:	06 dc       	rcall	.-2036   	; 0xfffff99e <__eeprom_end+0xff7ef79e>
     192:	1b 01       	movw	r2, r22
     194:	2c 01       	movw	r4, r24
    mult = -1;
    wgs84 = -wgs84;
  }
  
  uint8_t hour = wgs84 / 1000000; //Get hour part
  uint8_t min = (wgs84 - (hour * 1000000)) / 10000; //Get minute part
     196:	c6 01       	movw	r24, r12
     198:	b5 01       	movw	r22, r10
     19a:	20 ec       	ldi	r18, 0xC0	; 192
     19c:	3d eb       	ldi	r19, 0xBD	; 189
     19e:	40 ef       	ldi	r20, 0xF0	; 240
     1a0:	5f ef       	ldi	r21, 0xFF	; 255
     1a2:	fd db       	rcall	.-2054   	; 0xfffff99e <__eeprom_end+0xff7ef79e>
     1a4:	6e 0d       	add	r22, r14
     1a6:	7f 1d       	adc	r23, r15
     1a8:	80 1f       	adc	r24, r16
     1aa:	91 1f       	adc	r25, r17
     1ac:	a4 01       	movw	r20, r8
     1ae:	93 01       	movw	r18, r6
     1b0:	6b dc       	rcall	.-1834   	; 0xfffffa88 <__eeprom_end+0xff7ef888>
  uint32_t minDecimal = wgs84 % 10000; //Get minute decimal part
  
  int32_t sec100 = 0;
  sec100 += hour; // Add hour part
  sec100 *= 60;
  sec100 += min; // Add minute part
     1b2:	22 0e       	add	r2, r18
     1b4:	31 1c       	adc	r3, r1
     1b6:	41 1c       	adc	r4, r1
     1b8:	51 1c       	adc	r5, r1
  sec100 *= 60;
  sec100 *= 100;
  minDecimal *= 60;
     1ba:	6a 81       	ldd	r22, Y+2	; 0x02
     1bc:	7b 81       	ldd	r23, Y+3	; 0x03
     1be:	8c 81       	ldd	r24, Y+4	; 0x04
     1c0:	9d 81       	ldd	r25, Y+5	; 0x05
     1c2:	2c e3       	ldi	r18, 0x3C	; 60
     1c4:	30 e0       	ldi	r19, 0x00	; 0
     1c6:	40 e0       	ldi	r20, 0x00	; 0
     1c8:	50 e0       	ldi	r21, 0x00	; 0
     1ca:	e9 db       	rcall	.-2094   	; 0xfffff99e <__eeprom_end+0xff7ef79e>
     1cc:	5b 01       	movw	r10, r22
     1ce:	6c 01       	movw	r12, r24
  int32_t sec100 = 0;
  sec100 += hour; // Add hour part
  sec100 *= 60;
  sec100 += min; // Add minute part
  sec100 *= 60;
  sec100 *= 100;
     1d0:	c2 01       	movw	r24, r4
     1d2:	b1 01       	movw	r22, r2
     1d4:	20 e7       	ldi	r18, 0x70	; 112
     1d6:	37 e1       	ldi	r19, 0x17	; 23
     1d8:	40 e0       	ldi	r20, 0x00	; 0
     1da:	50 e0       	ldi	r21, 0x00	; 0
     1dc:	e0 db       	rcall	.-2112   	; 0xfffff99e <__eeprom_end+0xff7ef79e>
     1de:	7b 01       	movw	r14, r22
     1e0:	8c 01       	movw	r16, r24
  minDecimal *= 60;
  minDecimal /= 100;
     1e2:	c6 01       	movw	r24, r12
     1e4:	b5 01       	movw	r22, r10
     1e6:	24 e6       	ldi	r18, 0x64	; 100
     1e8:	30 e0       	ldi	r19, 0x00	; 0
     1ea:	40 e0       	ldi	r20, 0x00	; 0
     1ec:	50 e0       	ldi	r21, 0x00	; 0
     1ee:	2a dc       	rcall	.-1964   	; 0xfffffa44 <__eeprom_end+0xff7ef844>
  sec100 += minDecimal; // Add minute decimal part
     1f0:	e2 0e       	add	r14, r18
     1f2:	f3 1e       	adc	r15, r19
     1f4:	04 1f       	adc	r16, r20
     1f6:	15 1f       	adc	r17, r21
  
  if (mult == -1) {
     1f8:	f9 81       	ldd	r31, Y+1	; 0x01
     1fa:	ff 3f       	cpi	r31, 0xFF	; 255
     1fc:	41 f4       	brne	.+16     	; 0x20e <wgs84ToSec100+0x10e>
    return -sec100;
     1fe:	10 95       	com	r17
     200:	00 95       	com	r16
     202:	f0 94       	com	r15
     204:	e0 94       	com	r14
     206:	e1 1c       	adc	r14, r1
     208:	f1 1c       	adc	r15, r1
     20a:	01 1d       	adc	r16, r1
     20c:	11 1d       	adc	r17, r1
  } else {
    return sec100;
  }
}
     20e:	c8 01       	movw	r24, r16
     210:	b7 01       	movw	r22, r14
     212:	0f 90       	pop	r0
     214:	0f 90       	pop	r0
     216:	0f 90       	pop	r0
     218:	0f 90       	pop	r0
     21a:	0f 90       	pop	r0
     21c:	cf 91       	pop	r28
     21e:	df 91       	pop	r29
     220:	1f 91       	pop	r17
     222:	0f 91       	pop	r16
     224:	ff 90       	pop	r15
     226:	ef 90       	pop	r14
     228:	df 90       	pop	r13
     22a:	cf 90       	pop	r12
     22c:	bf 90       	pop	r11
     22e:	af 90       	pop	r10
     230:	9f 90       	pop	r9
     232:	8f 90       	pop	r8
     234:	7f 90       	pop	r7
     236:	6f 90       	pop	r6
     238:	5f 90       	pop	r5
     23a:	4f 90       	pop	r4
     23c:	3f 90       	pop	r3
     23e:	2f 90       	pop	r2
     240:	08 95       	ret

00000242 <clearGpsText>:
  UBRR0L = (uint8_t)GPS_UBRR;
  UCSR0C = (3<<UCSZ00); // 8N1
  UCSR0B = (1<<RXEN0); // Enable RX
}

static void clearGpsText() {
     242:	ef ea       	ldi	r30, 0xAF	; 175
     244:	f3 e0       	ldi	r31, 0x03	; 3
	for (uint8_t i = 0; i < GPS_MAX_CHARS; ++i) {
		gGpsText[i] = 0;
     246:	11 92       	st	Z+, r1
  UCSR0C = (3<<UCSZ00); // 8N1
  UCSR0B = (1<<RXEN0); // Enable RX
}

static void clearGpsText() {
	for (uint8_t i = 0; i < GPS_MAX_CHARS; ++i) {
     248:	83 e0       	ldi	r24, 0x03	; 3
     24a:	ea 3b       	cpi	r30, 0xBA	; 186
     24c:	f8 07       	cpc	r31, r24
     24e:	d9 f7       	brne	.-10     	; 0x246 <clearGpsText+0x4>
		gGpsText[i] = 0;
	}
}
     250:	08 95       	ret

00000252 <setHomePos>:

static void setHomePos() {
#ifdef STATISTICS_ENABLED	
	resetStatistics();
#endif //STATISTICS_ENABLED
	gHomePos = gGpsLastValidData.pos;
     252:	a9 ed       	ldi	r26, 0xD9	; 217
     254:	b3 e0       	ldi	r27, 0x03	; 3
     256:	ea eb       	ldi	r30, 0xBA	; 186
     258:	f3 e0       	ldi	r31, 0x03	; 3
     25a:	8a e0       	ldi	r24, 0x0A	; 10
     25c:	01 90       	ld	r0, Z+
     25e:	0d 92       	st	X+, r0
     260:	81 50       	subi	r24, 0x01	; 1
     262:	e1 f7       	brne	.-8      	; 0x25c <setHomePos+0xa>
	gHomePosSet = 1;
     264:	81 e0       	ldi	r24, 0x01	; 1
     266:	80 93 d8 03 	sts	0x03D8, r24
}
     26a:	08 95       	ret

0000026c <printNumber>:
	}
	strncpy(&str[pos], str2, length);
	return length+pos;
}

static uint8_t printNumber(char* const str, uint8_t pos, int32_t number) {
     26c:	4f 92       	push	r4
     26e:	5f 92       	push	r5
     270:	6f 92       	push	r6
     272:	7f 92       	push	r7
     274:	8f 92       	push	r8
     276:	9f 92       	push	r9
     278:	af 92       	push	r10
     27a:	bf 92       	push	r11
     27c:	cf 92       	push	r12
     27e:	df 92       	push	r13
     280:	ef 92       	push	r14
     282:	ff 92       	push	r15
     284:	0f 93       	push	r16
     286:	1f 93       	push	r17
     288:	df 93       	push	r29
     28a:	cf 93       	push	r28
     28c:	0f 92       	push	r0
     28e:	cd b7       	in	r28, 0x3d	; 61
     290:	de b7       	in	r29, 0x3e	; 62
     292:	2c 01       	movw	r4, r24
     294:	c6 2e       	mov	r12, r22
     296:	79 01       	movw	r14, r18
     298:	8a 01       	movw	r16, r20
#ifndef COMMONUTILS_H_
#define COMMONUTILS_H_

// abs seems to only support 16 bits so I had to make my own.
static uint32_t absi32(int32_t a) {
	return (a > 0) ? a : -a;
     29a:	17 ff       	sbrs	r17, 7
     29c:	07 c0       	rjmp	.+14     	; 0x2ac <printNumber+0x40>
     29e:	22 27       	eor	r18, r18
     2a0:	33 27       	eor	r19, r19
     2a2:	a9 01       	movw	r20, r18
     2a4:	2e 19       	sub	r18, r14
     2a6:	3f 09       	sbc	r19, r15
     2a8:	40 0b       	sbc	r20, r16
     2aa:	51 0b       	sbc	r21, r17
	uint8_t length = 1;
     2ac:	dd 24       	eor	r13, r13
     2ae:	d3 94       	inc	r13
	int32_t tmp = absi32(number);
	while (tmp > 9) {
		tmp /= 10;
     2b0:	6a e0       	ldi	r22, 0x0A	; 10
     2b2:	86 2e       	mov	r8, r22
     2b4:	91 2c       	mov	r9, r1
     2b6:	a1 2c       	mov	r10, r1
     2b8:	b1 2c       	mov	r11, r1
}

static uint8_t printNumber(char* const str, uint8_t pos, int32_t number) {
	uint8_t length = 1;
	int32_t tmp = absi32(number);
	while (tmp > 9) {
     2ba:	06 c0       	rjmp	.+12     	; 0x2c8 <printNumber+0x5c>
		tmp /= 10;
     2bc:	ca 01       	movw	r24, r20
     2be:	b9 01       	movw	r22, r18
     2c0:	a5 01       	movw	r20, r10
     2c2:	94 01       	movw	r18, r8
     2c4:	e1 db       	rcall	.-2110   	; 0xfffffa88 <__eeprom_end+0xff7ef888>
		++length;
     2c6:	d3 94       	inc	r13
}

static uint8_t printNumber(char* const str, uint8_t pos, int32_t number) {
	uint8_t length = 1;
	int32_t tmp = absi32(number);
	while (tmp > 9) {
     2c8:	2a 30       	cpi	r18, 0x0A	; 10
     2ca:	31 05       	cpc	r19, r1
     2cc:	41 05       	cpc	r20, r1
     2ce:	51 05       	cpc	r21, r1
     2d0:	ac f7       	brge	.-22     	; 0x2bc <printNumber+0x50>
		tmp /= 10;
		++length;
	}
	if (number < 0) {
     2d2:	17 fd       	sbrc	r17, 7
		++length;
     2d4:	d3 94       	inc	r13
	}
	if (pos + length >= TEXT_LINE_MAX_CHARS) {
     2d6:	8c 2d       	mov	r24, r12
     2d8:	90 e0       	ldi	r25, 0x00	; 0
     2da:	9c 01       	movw	r18, r24
     2dc:	2d 0d       	add	r18, r13
     2de:	31 1d       	adc	r19, r1
     2e0:	21 32       	cpi	r18, 0x21	; 33
     2e2:	31 05       	cpc	r19, r1
     2e4:	0c f0       	brlt	.+2      	; 0x2e8 <printNumber+0x7c>
     2e6:	55 c0       	rjmp	.+170    	; 0x392 <printNumber+0x126>
    return TEXT_LINE_MAX_CHARS;
	}
	myItoa(number, &str[pos]);
     2e8:	48 0e       	add	r4, r24
     2ea:	59 1e       	adc	r5, r25
static void myItoa(int32_t n, char s[])
{
  int8_t i;
  int8_t sign = 0;
 
  if (n < 0) {  
     2ec:	17 ff       	sbrs	r17, 7
     2ee:	0b c0       	rjmp	.+22     	; 0x306 <printNumber+0x9a>
	  sign = -1; /* record sign */
    n = -n;          /* make n positive */
     2f0:	10 95       	com	r17
     2f2:	00 95       	com	r16
     2f4:	f0 94       	com	r15
     2f6:	e0 94       	com	r14
     2f8:	e1 1c       	adc	r14, r1
     2fa:	f1 1c       	adc	r15, r1
     2fc:	01 1d       	adc	r16, r1
     2fe:	11 1d       	adc	r17, r1
{
  int8_t i;
  int8_t sign = 0;
 
  if (n < 0) {  
	  sign = -1; /* record sign */
     300:	6f ef       	ldi	r22, 0xFF	; 255
     302:	69 83       	std	Y+1, r22	; 0x01
     304:	01 c0       	rjmp	.+2      	; 0x308 <printNumber+0x9c>
}

static void myItoa(int32_t n, char s[])
{
  int8_t i;
  int8_t sign = 0;
     306:	19 82       	std	Y+1, r1	; 0x01
 
  if (n < 0) {  
	  sign = -1; /* record sign */
     308:	52 01       	movw	r10, r4
    n = -n;          /* make n positive */
  }	
  i = 0;
  do {       /* generate digits in reverse order */
    s[i++] = n % 10 + '0';   /* get next digit */
     30a:	9a e0       	ldi	r25, 0x0A	; 10
     30c:	69 2e       	mov	r6, r25
     30e:	71 2c       	mov	r7, r1
     310:	81 2c       	mov	r8, r1
     312:	91 2c       	mov	r9, r1
     314:	c8 01       	movw	r24, r16
     316:	b7 01       	movw	r22, r14
     318:	a4 01       	movw	r20, r8
     31a:	93 01       	movw	r18, r6
     31c:	b5 db       	rcall	.-2198   	; 0xfffffa88 <__eeprom_end+0xff7ef888>
     31e:	60 5d       	subi	r22, 0xD0	; 208
     320:	f5 01       	movw	r30, r10
     322:	61 93       	st	Z+, r22
     324:	5f 01       	movw	r10, r30
	}
	strncpy(&str[pos], str2, length);
	return length+pos;
}

static uint8_t printNumber(char* const str, uint8_t pos, int32_t number) {
     326:	8e 2f       	mov	r24, r30
     328:	84 19       	sub	r24, r4
  } while ((n /= 10) > 0);     /* delete it */
     32a:	79 01       	movw	r14, r18
     32c:	8a 01       	movw	r16, r20
     32e:	12 16       	cp	r1, r18
     330:	13 06       	cpc	r1, r19
     332:	14 06       	cpc	r1, r20
     334:	15 06       	cpc	r1, r21
     336:	74 f3       	brlt	.-36     	; 0x314 <printNumber+0xa8>
  if (sign < 0) {
     338:	f9 81       	ldd	r31, Y+1	; 0x01
     33a:	ff 3f       	cpi	r31, 0xFF	; 255
     33c:	49 f4       	brne	.+18     	; 0x350 <printNumber+0xe4>
    s[i++] = '-';
     33e:	e8 2f       	mov	r30, r24
     340:	ff 27       	eor	r31, r31
     342:	e7 fd       	sbrc	r30, 7
     344:	f0 95       	com	r31
     346:	e4 0d       	add	r30, r4
     348:	f5 1d       	adc	r31, r5
     34a:	9d e2       	ldi	r25, 0x2D	; 45
     34c:	90 83       	st	Z, r25
     34e:	8f 5f       	subi	r24, 0xFF	; 255
  }	
  s[i] = '\0';
     350:	e8 2f       	mov	r30, r24
     352:	ff 27       	eor	r31, r31
     354:	e7 fd       	sbrc	r30, 7
     356:	f0 95       	com	r31
     358:	e4 0d       	add	r30, r4
     35a:	f5 1d       	adc	r31, r5
     35c:	10 82       	st	Z, r1
}

static void myReverse(char s[], uint8_t size) {
  uint8_t i;
  char c;
  size -= 1;
     35e:	81 50       	subi	r24, 0x01	; 1
  for (i = 0; i <= size/2; i++) {
     360:	58 2f       	mov	r21, r24
     362:	56 95       	lsr	r21
     364:	40 e0       	ldi	r20, 0x00	; 0
    c = s[i];
    s[i] = s[size - i];
     366:	28 2f       	mov	r18, r24
     368:	30 e0       	ldi	r19, 0x00	; 0
static void myReverse(char s[], uint8_t size) {
  uint8_t i;
  char c;
  size -= 1;
  for (i = 0; i <= size/2; i++) {
    c = s[i];
     36a:	84 2f       	mov	r24, r20
     36c:	90 e0       	ldi	r25, 0x00	; 0
     36e:	d2 01       	movw	r26, r4
     370:	a8 0f       	add	r26, r24
     372:	b9 1f       	adc	r27, r25
     374:	6c 91       	ld	r22, X
    s[i] = s[size - i];
     376:	f9 01       	movw	r30, r18
     378:	e8 1b       	sub	r30, r24
     37a:	f9 0b       	sbc	r31, r25
     37c:	e4 0d       	add	r30, r4
     37e:	f5 1d       	adc	r31, r5
     380:	80 81       	ld	r24, Z
     382:	8c 93       	st	X, r24
    s[size - i] = c;
     384:	60 83       	st	Z, r22

static void myReverse(char s[], uint8_t size) {
  uint8_t i;
  char c;
  size -= 1;
  for (i = 0; i <= size/2; i++) {
     386:	4f 5f       	subi	r20, 0xFF	; 255
     388:	54 17       	cp	r21, r20
     38a:	78 f7       	brcc	.-34     	; 0x36a <printNumber+0xfe>
	}
	if (pos + length >= TEXT_LINE_MAX_CHARS) {
    return TEXT_LINE_MAX_CHARS;
	}
	myItoa(number, &str[pos]);
	return pos+length;
     38c:	8d 2d       	mov	r24, r13
     38e:	8c 0d       	add	r24, r12
     390:	01 c0       	rjmp	.+2      	; 0x394 <printNumber+0x128>
	}
	if (number < 0) {
		++length;
	}
	if (pos + length >= TEXT_LINE_MAX_CHARS) {
    return TEXT_LINE_MAX_CHARS;
     392:	81 e2       	ldi	r24, 0x21	; 33
	}
	myItoa(number, &str[pos]);
	return pos+length;
}
     394:	0f 90       	pop	r0
     396:	cf 91       	pop	r28
     398:	df 91       	pop	r29
     39a:	1f 91       	pop	r17
     39c:	0f 91       	pop	r16
     39e:	ff 90       	pop	r15
     3a0:	ef 90       	pop	r14
     3a2:	df 90       	pop	r13
     3a4:	cf 90       	pop	r12
     3a6:	bf 90       	pop	r11
     3a8:	af 90       	pop	r10
     3aa:	9f 90       	pop	r9
     3ac:	8f 90       	pop	r8
     3ae:	7f 90       	pop	r7
     3b0:	6f 90       	pop	r6
     3b2:	5f 90       	pop	r5
     3b4:	4f 90       	pop	r4
     3b6:	08 95       	ret

000003b8 <printText>:
      gTextPixmap[j + (i*TEXT_LINE_MAX_CHARS)] = gTextLastCharBuffer[i];
	  }		  
	}
}

static uint8_t printText(char* const str, uint8_t pos, const char* const str2) {
     3b8:	0f 93       	push	r16
     3ba:	1f 93       	push	r17
     3bc:	9c 01       	movw	r18, r24
     3be:	06 2f       	mov	r16, r22
     3c0:	fa 01       	movw	r30, r20
	uint8_t length = strlen(str2);
     3c2:	da 01       	movw	r26, r20
     3c4:	0d 90       	ld	r0, X+
     3c6:	00 20       	and	r0, r0
     3c8:	e9 f7       	brne	.-6      	; 0x3c4 <printText+0xc>
     3ca:	11 97       	sbiw	r26, 0x01	; 1
     3cc:	1a 2f       	mov	r17, r26
     3ce:	14 1b       	sub	r17, r20
	if (pos + length >= TEXT_LINE_MAX_CHARS) {
     3d0:	86 2f       	mov	r24, r22
     3d2:	90 e0       	ldi	r25, 0x00	; 0
     3d4:	81 0f       	add	r24, r17
     3d6:	91 1d       	adc	r25, r1
     3d8:	81 32       	cpi	r24, 0x21	; 33
     3da:	91 05       	cpc	r25, r1
     3dc:	0c f0       	brlt	.+2      	; 0x3e0 <printText+0x28>
    length = TEXT_LINE_MAX_CHARS;
     3de:	11 e2       	ldi	r17, 0x21	; 33
	}
	strncpy(&str[pos], str2, length);
     3e0:	41 2f       	mov	r20, r17
     3e2:	50 e0       	ldi	r21, 0x00	; 0
     3e4:	c9 01       	movw	r24, r18
     3e6:	80 0f       	add	r24, r16
     3e8:	91 1d       	adc	r25, r1
     3ea:	bf 01       	movw	r22, r30
     3ec:	82 db       	rcall	.-2300   	; 0xfffffaf2 <__eeprom_end+0xff7ef8f2>
	return length+pos;
}
     3ee:	81 2f       	mov	r24, r17
     3f0:	80 0f       	add	r24, r16
     3f2:	1f 91       	pop	r17
     3f4:	0f 91       	pop	r16
     3f6:	08 95       	ret

000003f8 <printNumberWithUnit>:
	}
	myItoa(number, &str[pos]);
	return pos+length;
}

static uint8_t printNumberWithUnit(char* const str, uint8_t pos, int32_t number, const char* unit) {
     3f8:	0f 93       	push	r16
     3fa:	1f 93       	push	r17
     3fc:	cf 93       	push	r28
     3fe:	df 93       	push	r29
     400:	ec 01       	movw	r28, r24
	pos = printNumber(str, pos, number);
     402:	34 df       	rcall	.-408    	; 0x26c <printNumber>
     404:	68 2f       	mov	r22, r24
	return printText(str, pos, unit);
     406:	ce 01       	movw	r24, r28
     408:	a8 01       	movw	r20, r16
     40a:	d6 df       	rcall	.-84     	; 0x3b8 <printText>
}
     40c:	df 91       	pop	r29
     40e:	cf 91       	pop	r28
     410:	1f 91       	pop	r17
     412:	0f 91       	pop	r16
     414:	08 95       	ret

00000416 <printAdc>:
		str[pos++] = '0';
	}	
	return printNumber(str, pos, gTime.sec);
}

static uint8_t printAdc(char* const str, uint8_t pos, const uint8_t adcInput) {
     416:	0f 93       	push	r16
     418:	1f 93       	push	r17
     41a:	cf 93       	push	r28
     41c:	df 93       	push	r29
     41e:	ec 01       	movw	r28, r24
	uint8_t low = gAnalogInputs[adcInput].low;
     420:	e4 2f       	mov	r30, r20
     422:	f0 e0       	ldi	r31, 0x00	; 0
     424:	ee 0f       	add	r30, r30
     426:	ff 1f       	adc	r31, r31
     428:	e4 5c       	subi	r30, 0xC4	; 196
     42a:	fb 4f       	sbci	r31, 0xFB	; 251
     42c:	10 81       	ld	r17, Z
	uint8_t high = gAnalogInputs[adcInput].high;
	pos = printNumber(str, pos, high);
     42e:	21 81       	ldd	r18, Z+1	; 0x01
     430:	30 e0       	ldi	r19, 0x00	; 0
     432:	40 e0       	ldi	r20, 0x00	; 0
     434:	50 e0       	ldi	r21, 0x00	; 0
     436:	1a df       	rcall	.-460    	; 0x26c <printNumber>
	str[pos++] = '.';
     438:	fe 01       	movw	r30, r28
     43a:	e8 0f       	add	r30, r24
     43c:	f1 1d       	adc	r31, r1
     43e:	9e e2       	ldi	r25, 0x2E	; 46
     440:	90 83       	st	Z, r25
     442:	68 2f       	mov	r22, r24
     444:	6f 5f       	subi	r22, 0xFF	; 255
	if(low < 10) {
     446:	1a 30       	cpi	r17, 0x0A	; 10
     448:	30 f4       	brcc	.+12     	; 0x456 <printAdc+0x40>
		str[pos++] = '0';
     44a:	fe 01       	movw	r30, r28
     44c:	e6 0f       	add	r30, r22
     44e:	f1 1d       	adc	r31, r1
     450:	80 e3       	ldi	r24, 0x30	; 48
     452:	80 83       	st	Z, r24
     454:	6f 5f       	subi	r22, 0xFF	; 255
	}
	return printNumberWithUnit(str, pos, low, "V");		
     456:	21 2f       	mov	r18, r17
     458:	30 e0       	ldi	r19, 0x00	; 0
     45a:	40 e0       	ldi	r20, 0x00	; 0
     45c:	50 e0       	ldi	r21, 0x00	; 0
     45e:	ce 01       	movw	r24, r28
     460:	00 e0       	ldi	r16, 0x00	; 0
     462:	11 e0       	ldi	r17, 0x01	; 1
     464:	c9 df       	rcall	.-110    	; 0x3f8 <printNumberWithUnit>
}
     466:	df 91       	pop	r29
     468:	cf 91       	pop	r28
     46a:	1f 91       	pop	r17
     46c:	0f 91       	pop	r16
     46e:	08 95       	ret

00000470 <printGpsNumber>:
static uint8_t printBatterLevel(char* const str, uint8_t pos, const uint8_t adcInput) {
	uint8_t batterLevel = calcBatteryLevel(adcInput);
	return printNumberWithUnit(str, pos, batterLevel, "%");
}

static uint8_t printGpsNumber(char* const str, uint8_t pos, int32_t number, uint8_t numberLat) {
     470:	4f 92       	push	r4
     472:	5f 92       	push	r5
     474:	6f 92       	push	r6
     476:	7f 92       	push	r7
     478:	8f 92       	push	r8
     47a:	9f 92       	push	r9
     47c:	af 92       	push	r10
     47e:	bf 92       	push	r11
     480:	cf 92       	push	r12
     482:	df 92       	push	r13
     484:	ef 92       	push	r14
     486:	ff 92       	push	r15
     488:	0f 93       	push	r16
     48a:	1f 93       	push	r17
     48c:	cf 93       	push	r28
     48e:	df 93       	push	r29
     490:	ec 01       	movw	r28, r24
     492:	16 2f       	mov	r17, r22
     494:	69 01       	movw	r12, r18
     496:	7a 01       	movw	r14, r20
	if (number == 0) {
     498:	21 15       	cp	r18, r1
     49a:	31 05       	cpc	r19, r1
     49c:	41 05       	cpc	r20, r1
     49e:	51 05       	cpc	r21, r1
     4a0:	21 f4       	brne	.+8      	; 0x4aa <printGpsNumber+0x3a>
#ifdef GPS_GOOGLE_FORMAT
    pos = printText(str, pos, "--.-------?");
     4a2:	4a e0       	ldi	r20, 0x0A	; 10
     4a4:	51 e0       	ldi	r21, 0x01	; 1
     4a6:	88 df       	rcall	.-240    	; 0x3b8 <printText>
#else
	  pos = printText(str, pos, "--:--.----?");
#endif
	  return pos;
     4a8:	47 c0       	rjmp	.+142    	; 0x538 <__stack+0x39>
  }
	
	uint8_t hour = number / 1000000;
     4aa:	ca 01       	movw	r24, r20
     4ac:	b9 01       	movw	r22, r18
     4ae:	20 e4       	ldi	r18, 0x40	; 64
     4b0:	32 e4       	ldi	r19, 0x42	; 66
     4b2:	4f e0       	ldi	r20, 0x0F	; 15
     4b4:	50 e0       	ldi	r21, 0x00	; 0
     4b6:	e8 da       	rcall	.-2608   	; 0xfffffa88 <__eeprom_end+0xff7ef888>
#ifdef GPS_GOOGLE_FORMAT
  uint32_t min = number - (hour * 1000000);
     4b8:	82 2e       	mov	r8, r18
     4ba:	99 24       	eor	r9, r9
     4bc:	aa 24       	eor	r10, r10
     4be:	bb 24       	eor	r11, r11
     4c0:	c5 01       	movw	r24, r10
     4c2:	b4 01       	movw	r22, r8
     4c4:	20 ec       	ldi	r18, 0xC0	; 192
     4c6:	3d eb       	ldi	r19, 0xBD	; 189
     4c8:	40 ef       	ldi	r20, 0xF0	; 240
     4ca:	5f ef       	ldi	r21, 0xFF	; 255
     4cc:	68 da       	rcall	.-2864   	; 0xfffff99e <__eeprom_end+0xff7ef79e>
     4ce:	6c 0d       	add	r22, r12
     4d0:	7d 1d       	adc	r23, r13
     4d2:	8e 1d       	adc	r24, r14
     4d4:	9f 1d       	adc	r25, r15
  min = (min * 100)/60;
     4d6:	24 e6       	ldi	r18, 0x64	; 100
     4d8:	30 e0       	ldi	r19, 0x00	; 0
     4da:	40 e0       	ldi	r20, 0x00	; 0
     4dc:	50 e0       	ldi	r21, 0x00	; 0
     4de:	5f da       	rcall	.-2882   	; 0xfffff99e <__eeprom_end+0xff7ef79e>
     4e0:	2c e3       	ldi	r18, 0x3C	; 60
     4e2:	30 e0       	ldi	r19, 0x00	; 0
     4e4:	40 e0       	ldi	r20, 0x00	; 0
     4e6:	50 e0       	ldi	r21, 0x00	; 0
     4e8:	ad da       	rcall	.-2726   	; 0xfffffa44 <__eeprom_end+0xff7ef844>
     4ea:	29 01       	movw	r4, r18
     4ec:	3a 01       	movw	r6, r20
	uint8_t min = (number - (hour * 1000000)) / 10000; //Get minute part
  uint32_t minDecimal = number % 10000; //Get minute decimal part
#endif
  
  const char* str2;
  if (numberLat) {
     4ee:	00 23       	and	r16, r16
     4f0:	59 f0       	breq	.+22     	; 0x508 <__stack+0x9>
	  str2 = number > 0 ? "N" : "S";
     4f2:	1c 14       	cp	r1, r12
     4f4:	1d 04       	cpc	r1, r13
     4f6:	1e 04       	cpc	r1, r14
     4f8:	1f 04       	cpc	r1, r15
     4fa:	1c f4       	brge	.+6      	; 0x502 <__stack+0x3>
     4fc:	82 e0       	ldi	r24, 0x02	; 2
     4fe:	91 e0       	ldi	r25, 0x01	; 1
     500:	0d c0       	rjmp	.+26     	; 0x51c <__stack+0x1d>
     502:	84 e0       	ldi	r24, 0x04	; 4
     504:	91 e0       	ldi	r25, 0x01	; 1
     506:	0a c0       	rjmp	.+20     	; 0x51c <__stack+0x1d>
  }
  else {
	  str2 = number > 0 ? "E" : "W";
     508:	1c 14       	cp	r1, r12
     50a:	1d 04       	cpc	r1, r13
     50c:	1e 04       	cpc	r1, r14
     50e:	1f 04       	cpc	r1, r15
     510:	1c f4       	brge	.+6      	; 0x518 <__stack+0x19>
     512:	86 e0       	ldi	r24, 0x06	; 6
     514:	91 e0       	ldi	r25, 0x01	; 1
     516:	02 c0       	rjmp	.+4      	; 0x51c <__stack+0x1d>
     518:	88 e0       	ldi	r24, 0x08	; 8
     51a:	91 e0       	ldi	r25, 0x01	; 1
     51c:	6c 01       	movw	r12, r24
  }

#ifdef GPS_GOOGLE_FORMAT
  pos = printNumberWithUnit(str, pos, hour, ".");
     51e:	ce 01       	movw	r24, r28
     520:	61 2f       	mov	r22, r17
     522:	a5 01       	movw	r20, r10
     524:	94 01       	movw	r18, r8
     526:	06 e1       	ldi	r16, 0x16	; 22
     528:	11 e0       	ldi	r17, 0x01	; 1
     52a:	66 df       	rcall	.-308    	; 0x3f8 <printNumberWithUnit>
     52c:	68 2f       	mov	r22, r24
  return printNumberWithUnit(str, pos, min, str2);
     52e:	ce 01       	movw	r24, r28
     530:	a3 01       	movw	r20, r6
     532:	92 01       	movw	r18, r4
     534:	86 01       	movw	r16, r12
     536:	60 df       	rcall	.-320    	; 0x3f8 <printNumberWithUnit>
#else
  pos = printNumberWithUnit(str, pos, hour, ":");
  pos = printNumberWithUnit(str, pos, min, ".");
  return printNumberWithUnit(str, pos, minDecimal, str2);
#endif
}
     538:	df 91       	pop	r29
     53a:	cf 91       	pop	r28
     53c:	1f 91       	pop	r17
     53e:	0f 91       	pop	r16
     540:	ff 90       	pop	r15
     542:	ef 90       	pop	r14
     544:	df 90       	pop	r13
     546:	cf 90       	pop	r12
     548:	bf 90       	pop	r11
     54a:	af 90       	pop	r10
     54c:	9f 90       	pop	r9
     54e:	8f 90       	pop	r8
     550:	7f 90       	pop	r7
     552:	6f 90       	pop	r6
     554:	5f 90       	pop	r5
     556:	4f 90       	pop	r4
     558:	08 95       	ret

0000055a <parseInt.clone.2>:
	tmp /= 1000;
	*var = tmp;
}
#endif //IMPERIAL_SYSTEM

static int32_t parseInt(const char* const text, uint8_t maxLength) {
     55a:	ff 92       	push	r15
     55c:	0f 93       	push	r16
     55e:	1f 93       	push	r17
	uint8_t i = 0;
     560:	01 e0       	ldi	r16, 0x01	; 1
     562:	80 91 af 03 	lds	r24, 0x03AF
     566:	8d 32       	cpi	r24, 0x2D	; 45
     568:	09 f0       	breq	.+2      	; 0x56c <parseInt.clone.2+0x12>
     56a:	00 e0       	ldi	r16, 0x00	; 0
     56c:	10 2f       	mov	r17, r16
     56e:	20 e0       	ldi	r18, 0x00	; 0
     570:	30 e0       	ldi	r19, 0x00	; 0
     572:	a9 01       	movw	r20, r18
     574:	14 c0       	rjmp	.+40     	; 0x59e <parseInt.clone.2+0x44>
	if (text[0] == '-') {
		++i;
		neg = 1;
	}
	while (isDigit(text[i]) && i < maxLength) {
		decimal *= 10;
     576:	ca 01       	movw	r24, r20
     578:	b9 01       	movw	r22, r18
     57a:	2a e0       	ldi	r18, 0x0A	; 10
     57c:	30 e0       	ldi	r19, 0x00	; 0
     57e:	40 e0       	ldi	r20, 0x00	; 0
     580:	50 e0       	ldi	r21, 0x00	; 0
     582:	0d da       	rcall	.-3046   	; 0xfffff99e <__eeprom_end+0xff7ef79e>
		decimal += (text[i]) - '0';
     584:	2f 2d       	mov	r18, r15
     586:	30 e0       	ldi	r19, 0x00	; 0
     588:	20 53       	subi	r18, 0x30	; 48
     58a:	30 40       	sbci	r19, 0x00	; 0
     58c:	44 27       	eor	r20, r20
     58e:	37 fd       	sbrc	r19, 7
     590:	40 95       	com	r20
     592:	54 2f       	mov	r21, r20
     594:	26 0f       	add	r18, r22
     596:	37 1f       	adc	r19, r23
     598:	48 1f       	adc	r20, r24
     59a:	59 1f       	adc	r21, r25
		++i;		
     59c:	1f 5f       	subi	r17, 0xFF	; 255
	uint8_t neg = 0;
	if (text[0] == '-') {
		++i;
		neg = 1;
	}
	while (isDigit(text[i]) && i < maxLength) {
     59e:	e1 2f       	mov	r30, r17
     5a0:	f0 e0       	ldi	r31, 0x00	; 0
     5a2:	e1 55       	subi	r30, 0x51	; 81
     5a4:	fc 4f       	sbci	r31, 0xFC	; 252
     5a6:	f0 80       	ld	r15, Z
  } while (c++ < 25);
  return nv;
}

inline uint8_t isDigit(char c) {
	if (c >= '0' && c <= '9') {
     5a8:	8f 2d       	mov	r24, r15
     5aa:	80 53       	subi	r24, 0x30	; 48
     5ac:	8a 30       	cpi	r24, 0x0A	; 10
     5ae:	10 f4       	brcc	.+4      	; 0x5b4 <parseInt.clone.2+0x5a>
     5b0:	1b 30       	cpi	r17, 0x0B	; 11
     5b2:	08 f3       	brcs	.-62     	; 0x576 <parseInt.clone.2+0x1c>
		decimal *= 10;
		decimal += (text[i]) - '0';
		++i;		
	}
	return decimal * (neg ? -1 : 1);
     5b4:	00 23       	and	r16, r16
     5b6:	21 f0       	breq	.+8      	; 0x5c0 <parseInt.clone.2+0x66>
     5b8:	6f ef       	ldi	r22, 0xFF	; 255
     5ba:	7f ef       	ldi	r23, 0xFF	; 255
     5bc:	cb 01       	movw	r24, r22
     5be:	04 c0       	rjmp	.+8      	; 0x5c8 <parseInt.clone.2+0x6e>
     5c0:	61 e0       	ldi	r22, 0x01	; 1
     5c2:	70 e0       	ldi	r23, 0x00	; 0
     5c4:	80 e0       	ldi	r24, 0x00	; 0
     5c6:	90 e0       	ldi	r25, 0x00	; 0
     5c8:	ea d9       	rcall	.-3116   	; 0xfffff99e <__eeprom_end+0xff7ef79e>
}
     5ca:	1f 91       	pop	r17
     5cc:	0f 91       	pop	r16
     5ce:	ff 90       	pop	r15
     5d0:	08 95       	ret

000005d2 <parseFloat.clone.4>:

static int32_t parseFloat(const char* const text, uint8_t maxLength) {
     5d2:	ff 92       	push	r15
     5d4:	0f 93       	push	r16
     5d6:	1f 93       	push	r17
	
	uint32_t val = 0;
	uint8_t neg = 0;
     5d8:	01 e0       	ldi	r16, 0x01	; 1
     5da:	80 91 af 03 	lds	r24, 0x03AF
     5de:	8d 32       	cpi	r24, 0x2D	; 45
     5e0:	09 f0       	breq	.+2      	; 0x5e4 <parseFloat.clone.4+0x12>
     5e2:	00 e0       	ldi	r16, 0x00	; 0
     5e4:	10 2f       	mov	r17, r16
     5e6:	20 e0       	ldi	r18, 0x00	; 0
     5e8:	30 e0       	ldi	r19, 0x00	; 0
     5ea:	a9 01       	movw	r20, r18
	if (text[0] == '-') {
		++i;
		neg = 1;
	}
	for (; i < maxLength; ++i) {
		if (isDigit(text[i])) {
     5ec:	e1 2f       	mov	r30, r17
     5ee:	f0 e0       	ldi	r31, 0x00	; 0
     5f0:	e1 55       	subi	r30, 0x51	; 81
     5f2:	fc 4f       	sbci	r31, 0xFC	; 252
     5f4:	f0 80       	ld	r15, Z
     5f6:	8f 2d       	mov	r24, r15
     5f8:	80 53       	subi	r24, 0x30	; 48
     5fa:	8a 30       	cpi	r24, 0x0A	; 10
     5fc:	28 f5       	brcc	.+74     	; 0x648 <parseFloat.clone.4+0x76>
			val *= 10;
     5fe:	ca 01       	movw	r24, r20
     600:	b9 01       	movw	r22, r18
     602:	2a e0       	ldi	r18, 0x0A	; 10
     604:	30 e0       	ldi	r19, 0x00	; 0
     606:	40 e0       	ldi	r20, 0x00	; 0
     608:	50 e0       	ldi	r21, 0x00	; 0
     60a:	c9 d9       	rcall	.-3182   	; 0xfffff99e <__eeprom_end+0xff7ef79e>
			val += (text[i]) - '0';
     60c:	2f 2d       	mov	r18, r15
     60e:	30 e0       	ldi	r19, 0x00	; 0
     610:	20 53       	subi	r18, 0x30	; 48
     612:	30 40       	sbci	r19, 0x00	; 0
     614:	44 27       	eor	r20, r20
     616:	37 fd       	sbrc	r19, 7
     618:	40 95       	com	r20
     61a:	54 2f       	mov	r21, r20
     61c:	26 0f       	add	r18, r22
     61e:	37 1f       	adc	r19, r23
     620:	48 1f       	adc	r20, r24
     622:	59 1f       	adc	r21, r25
	uint8_t i = 0;
	if (text[0] == '-') {
		++i;
		neg = 1;
	}
	for (; i < maxLength; ++i) {
     624:	1f 5f       	subi	r17, 0xFF	; 255
     626:	1b 30       	cpi	r17, 0x0B	; 11
     628:	08 f3       	brcs	.-62     	; 0x5ec <parseFloat.clone.4+0x1a>
		}
		else if (text[i] != '.') {
			break;
		}			
	}
	return val * (neg ? -1 : 1);
     62a:	00 23       	and	r16, r16
     62c:	21 f0       	breq	.+8      	; 0x636 <parseFloat.clone.4+0x64>
     62e:	6f ef       	ldi	r22, 0xFF	; 255
     630:	7f ef       	ldi	r23, 0xFF	; 255
     632:	cb 01       	movw	r24, r22
     634:	04 c0       	rjmp	.+8      	; 0x63e <parseFloat.clone.4+0x6c>
     636:	61 e0       	ldi	r22, 0x01	; 1
     638:	70 e0       	ldi	r23, 0x00	; 0
     63a:	80 e0       	ldi	r24, 0x00	; 0
     63c:	90 e0       	ldi	r25, 0x00	; 0
     63e:	af d9       	rcall	.-3234   	; 0xfffff99e <__eeprom_end+0xff7ef79e>
}
     640:	1f 91       	pop	r17
     642:	0f 91       	pop	r16
     644:	ff 90       	pop	r15
     646:	08 95       	ret
	for (; i < maxLength; ++i) {
		if (isDigit(text[i])) {
			val *= 10;
			val += (text[i]) - '0';
		}
		else if (text[i] != '.') {
     648:	8f 2d       	mov	r24, r15
     64a:	8e 32       	cpi	r24, 0x2E	; 46
     64c:	59 f3       	breq	.-42     	; 0x624 <parseFloat.clone.4+0x52>
     64e:	ed cf       	rjmp	.-38     	; 0x62a <parseFloat.clone.4+0x58>

00000650 <parseGpsPart>:
	gGpsTextPartLength = strlen((const char*)gGpsText);
}
#endif //GPS_PART_TEXT

static void parseGpsPart() {
	if (gGpsTextType == GPS_TYPE_NONE) {
     650:	80 91 ad 03 	lds	r24, 0x03AD
     654:	88 23       	and	r24, r24
     656:	01 f5       	brne	.+64     	; 0x698 <parseGpsPart+0x48>
		if (!strncmp((const char*)gGpsText, "GPGGA", 5)) {
     658:	8f ea       	ldi	r24, 0xAF	; 175
     65a:	93 e0       	ldi	r25, 0x03	; 3
     65c:	68 e1       	ldi	r22, 0x18	; 24
     65e:	71 e0       	ldi	r23, 0x01	; 1
     660:	45 e0       	ldi	r20, 0x05	; 5
     662:	50 e0       	ldi	r21, 0x00	; 0
     664:	38 da       	rcall	.-2960   	; 0xfffffad6 <__eeprom_end+0xff7ef8d6>
     666:	00 97       	sbiw	r24, 0x00	; 0
     668:	31 f4       	brne	.+12     	; 0x676 <parseGpsPart+0x26>
			gGpsTextType = GPS_TYPE_GPGGA;
     66a:	81 e0       	ldi	r24, 0x01	; 1
     66c:	80 93 ad 03 	sts	0x03AD, r24
			gGpsTextPartStep = GPS_PART_NONE;
     670:	10 92 66 01 	sts	0x0166, r1
     674:	08 95       	ret
			//updateParts();
		}
		else if (!strncmp((const char*)gGpsText, "GPRMC", 5)) {
     676:	8f ea       	ldi	r24, 0xAF	; 175
     678:	93 e0       	ldi	r25, 0x03	; 3
     67a:	6e e1       	ldi	r22, 0x1E	; 30
     67c:	71 e0       	ldi	r23, 0x01	; 1
     67e:	45 e0       	ldi	r20, 0x05	; 5
     680:	50 e0       	ldi	r21, 0x00	; 0
     682:	29 da       	rcall	.-2990   	; 0xfffffad6 <__eeprom_end+0xff7ef8d6>
     684:	00 97       	sbiw	r24, 0x00	; 0
     686:	09 f0       	breq	.+2      	; 0x68a <parseGpsPart+0x3a>
     688:	0a c1       	rjmp	.+532    	; 0x89e <parseGpsPart+0x24e>
			gGpsTextType = GPS_TYPE_GPRMC;
     68a:	82 e0       	ldi	r24, 0x02	; 2
     68c:	80 93 ad 03 	sts	0x03AD, r24
			gGpsTextPartStep = GPS_GPRMC_PART_OFFSET;
     690:	84 e6       	ldi	r24, 0x64	; 100
     692:	80 93 66 01 	sts	0x0166, r24
     696:	08 95       	ret
			//updateParts();
		}
	}
	else if (gGpsTextType != GPS_TYPE_NONE) {
		if (gGpsTextPos != 0) {
     698:	80 91 ac 03 	lds	r24, 0x03AC
     69c:	88 23       	and	r24, r24
     69e:	09 f4       	brne	.+2      	; 0x6a2 <parseGpsPart+0x52>
     6a0:	fe c0       	rjmp	.+508    	; 0x89e <parseGpsPart+0x24e>
			switch (gGpsTextPartStep) {
     6a2:	80 91 66 01 	lds	r24, 0x0166
     6a6:	85 36       	cpi	r24, 0x65	; 101
     6a8:	e9 f1       	breq	.+122    	; 0x724 <parseGpsPart+0xd4>
     6aa:	86 36       	cpi	r24, 0x66	; 102
     6ac:	d8 f4       	brcc	.+54     	; 0x6e4 <parseGpsPart+0x94>
     6ae:	84 30       	cpi	r24, 0x04	; 4
     6b0:	09 f4       	brne	.+2      	; 0x6b4 <parseGpsPart+0x64>
     6b2:	69 c0       	rjmp	.+210    	; 0x786 <parseGpsPart+0x136>
     6b4:	85 30       	cpi	r24, 0x05	; 5
     6b6:	48 f4       	brcc	.+18     	; 0x6ca <parseGpsPart+0x7a>
     6b8:	82 30       	cpi	r24, 0x02	; 2
     6ba:	f1 f1       	breq	.+124    	; 0x738 <parseGpsPart+0xe8>
     6bc:	83 30       	cpi	r24, 0x03	; 3
     6be:	08 f0       	brcs	.+2      	; 0x6c2 <parseGpsPart+0x72>
     6c0:	45 c0       	rjmp	.+138    	; 0x74c <parseGpsPart+0xfc>
     6c2:	81 30       	cpi	r24, 0x01	; 1
     6c4:	09 f0       	breq	.+2      	; 0x6c8 <parseGpsPart+0x78>
     6c6:	eb c0       	rjmp	.+470    	; 0x89e <parseGpsPart+0x24e>
     6c8:	2d c0       	rjmp	.+90     	; 0x724 <parseGpsPart+0xd4>
     6ca:	86 30       	cpi	r24, 0x06	; 6
     6cc:	09 f4       	brne	.+2      	; 0x6d0 <parseGpsPart+0x80>
     6ce:	82 c0       	rjmp	.+260    	; 0x7d4 <parseGpsPart+0x184>
     6d0:	86 30       	cpi	r24, 0x06	; 6
     6d2:	08 f4       	brcc	.+2      	; 0x6d6 <parseGpsPart+0x86>
     6d4:	62 c0       	rjmp	.+196    	; 0x79a <parseGpsPart+0x14a>
     6d6:	87 30       	cpi	r24, 0x07	; 7
     6d8:	09 f4       	brne	.+2      	; 0x6dc <parseGpsPart+0x8c>
     6da:	80 c0       	rjmp	.+256    	; 0x7dc <parseGpsPart+0x18c>
     6dc:	89 30       	cpi	r24, 0x09	; 9
     6de:	09 f0       	breq	.+2      	; 0x6e2 <parseGpsPart+0x92>
     6e0:	de c0       	rjmp	.+444    	; 0x89e <parseGpsPart+0x24e>
     6e2:	80 c0       	rjmp	.+256    	; 0x7e4 <parseGpsPart+0x194>
     6e4:	8a 36       	cpi	r24, 0x6A	; 106
     6e6:	09 f4       	brne	.+2      	; 0x6ea <parseGpsPart+0x9a>
     6e8:	58 c0       	rjmp	.+176    	; 0x79a <parseGpsPart+0x14a>
     6ea:	8b 36       	cpi	r24, 0x6B	; 107
     6ec:	48 f4       	brcc	.+18     	; 0x700 <parseGpsPart+0xb0>
     6ee:	88 36       	cpi	r24, 0x68	; 104
     6f0:	69 f1       	breq	.+90     	; 0x74c <parseGpsPart+0xfc>
     6f2:	89 36       	cpi	r24, 0x69	; 105
     6f4:	08 f0       	brcs	.+2      	; 0x6f8 <parseGpsPart+0xa8>
     6f6:	47 c0       	rjmp	.+142    	; 0x786 <parseGpsPart+0x136>
     6f8:	87 36       	cpi	r24, 0x67	; 103
     6fa:	09 f0       	breq	.+2      	; 0x6fe <parseGpsPart+0xae>
     6fc:	d0 c0       	rjmp	.+416    	; 0x89e <parseGpsPart+0x24e>
     6fe:	1c c0       	rjmp	.+56     	; 0x738 <parseGpsPart+0xe8>
     700:	8c 36       	cpi	r24, 0x6C	; 108
     702:	09 f4       	brne	.+2      	; 0x706 <parseGpsPart+0xb6>
     704:	88 c0       	rjmp	.+272    	; 0x816 <parseGpsPart+0x1c6>
     706:	8c 36       	cpi	r24, 0x6C	; 108
     708:	08 f4       	brcc	.+2      	; 0x70c <parseGpsPart+0xbc>
     70a:	72 c0       	rjmp	.+228    	; 0x7f0 <parseGpsPart+0x1a0>
     70c:	8d 36       	cpi	r24, 0x6D	; 109
     70e:	09 f4       	brne	.+2      	; 0x712 <parseGpsPart+0xc2>
     710:	88 c0       	rjmp	.+272    	; 0x822 <parseGpsPart+0x1d2>
     712:	88 3c       	cpi	r24, 0xC8	; 200
     714:	09 f0       	breq	.+2      	; 0x718 <parseGpsPart+0xc8>
     716:	c3 c0       	rjmp	.+390    	; 0x89e <parseGpsPart+0x24e>
     718:	ef ea       	ldi	r30, 0xAF	; 175
     71a:	f3 e0       	ldi	r31, 0x03	; 3
	strncpy((char*)gGpsTextPart, (char*)gGpsText, GPS_MAX_CHARS);
	gGpsTextPartLength = strlen((const char*)gGpsText);
}
#endif //GPS_PART_TEXT

static void parseGpsPart() {
     71c:	80 e0       	ldi	r24, 0x00	; 0
     71e:	90 e0       	ldi	r25, 0x00	; 0
     720:	dc 01       	movw	r26, r24
     722:	af c0       	rjmp	.+350    	; 0x882 <parseGpsPart+0x232>
	else if (gGpsTextType != GPS_TYPE_NONE) {
		if (gGpsTextPos != 0) {
			switch (gGpsTextPartStep) {
			case GPS_PART_GPGGA_TIME:
			case GPS_PART_GPRMC_TIME:
				gGpsLastData.gTime = parseInt(gGpsText, GPS_MAX_CHARS);
     724:	1a df       	rcall	.-460    	; 0x55a <parseInt.clone.2>
     726:	60 93 9d 03 	sts	0x039D, r22
     72a:	70 93 9e 03 	sts	0x039E, r23
     72e:	80 93 9f 03 	sts	0x039F, r24
     732:	90 93 a0 03 	sts	0x03A0, r25
				//updateParts();
				break;
     736:	08 95       	ret
			case GPS_PART_GPGGA_LAT:
			case GPS_PART_GPRMC_LAT:
				gGpsLastData.pos.latitude = parseFloat(gGpsText, GPS_MAX_CHARS);
     738:	4c df       	rcall	.-360    	; 0x5d2 <parseFloat.clone.4>
     73a:	60 93 93 03 	sts	0x0393, r22
     73e:	70 93 94 03 	sts	0x0394, r23
     742:	80 93 95 03 	sts	0x0395, r24
     746:	90 93 96 03 	sts	0x0396, r25
				//updateParts();
				break;
     74a:	08 95       	ret
			case GPS_PART_GPGGA_LAT_UNIT:
			case GPS_PART_GPRMC_LAT_UNIT:
				if (gGpsText[0] == 'S') {
     74c:	80 91 af 03 	lds	r24, 0x03AF
     750:	83 35       	cpi	r24, 0x53	; 83
     752:	09 f0       	breq	.+2      	; 0x756 <parseGpsPart+0x106>
     754:	a4 c0       	rjmp	.+328    	; 0x89e <parseGpsPart+0x24e>
					gGpsLastData.pos.latitude = -gGpsLastData.pos.latitude;
     756:	80 91 93 03 	lds	r24, 0x0393
     75a:	90 91 94 03 	lds	r25, 0x0394
     75e:	a0 91 95 03 	lds	r26, 0x0395
     762:	b0 91 96 03 	lds	r27, 0x0396
     766:	b0 95       	com	r27
     768:	a0 95       	com	r26
     76a:	90 95       	com	r25
     76c:	81 95       	neg	r24
     76e:	9f 4f       	sbci	r25, 0xFF	; 255
     770:	af 4f       	sbci	r26, 0xFF	; 255
     772:	bf 4f       	sbci	r27, 0xFF	; 255
     774:	80 93 93 03 	sts	0x0393, r24
     778:	90 93 94 03 	sts	0x0394, r25
     77c:	a0 93 95 03 	sts	0x0395, r26
     780:	b0 93 96 03 	sts	0x0396, r27
     784:	08 95       	ret
				}
				break;
			case GPS_PART_GPGGA_LONG:
			case GPS_PART_GPRMC_LONG:
				gGpsLastData.pos.longitude = parseFloat(gGpsText, GPS_MAX_CHARS);
     786:	25 df       	rcall	.-438    	; 0x5d2 <parseFloat.clone.4>
     788:	60 93 97 03 	sts	0x0397, r22
     78c:	70 93 98 03 	sts	0x0398, r23
     790:	80 93 99 03 	sts	0x0399, r24
     794:	90 93 9a 03 	sts	0x039A, r25
				//updateParts();
				break;
     798:	08 95       	ret
			case GPS_PART_GPGGA_LONG_UNIT:
			case GPS_PART_GPRMC_LONG_UNIT:
				if (gGpsText[0] == 'W') {
     79a:	80 91 af 03 	lds	r24, 0x03AF
     79e:	87 35       	cpi	r24, 0x57	; 87
     7a0:	09 f0       	breq	.+2      	; 0x7a4 <parseGpsPart+0x154>
     7a2:	7d c0       	rjmp	.+250    	; 0x89e <parseGpsPart+0x24e>
					gGpsLastData.pos.longitude = -gGpsLastData.pos.longitude;
     7a4:	80 91 97 03 	lds	r24, 0x0397
     7a8:	90 91 98 03 	lds	r25, 0x0398
     7ac:	a0 91 99 03 	lds	r26, 0x0399
     7b0:	b0 91 9a 03 	lds	r27, 0x039A
     7b4:	b0 95       	com	r27
     7b6:	a0 95       	com	r26
     7b8:	90 95       	com	r25
     7ba:	81 95       	neg	r24
     7bc:	9f 4f       	sbci	r25, 0xFF	; 255
     7be:	af 4f       	sbci	r26, 0xFF	; 255
     7c0:	bf 4f       	sbci	r27, 0xFF	; 255
     7c2:	80 93 97 03 	sts	0x0397, r24
     7c6:	90 93 98 03 	sts	0x0398, r25
     7ca:	a0 93 99 03 	sts	0x0399, r26
     7ce:	b0 93 9a 03 	sts	0x039A, r27
     7d2:	08 95       	ret
				}
				//updateParts();
				break;
			case GPS_PART_GPGGA_FIX:
				gGpsLastData.fix = parseInt(gGpsText, GPS_MAX_CHARS);
     7d4:	c2 de       	rcall	.-636    	; 0x55a <parseInt.clone.2>
     7d6:	60 93 a1 03 	sts	0x03A1, r22
				//updateParts();
				break;
     7da:	08 95       	ret
			case GPS_PART_GPRMC_STATUS:
				// Status
				break;
			case GPS_PART_GPGGA_SATS:
				gGpsLastData.sats = parseInt(gGpsText, GPS_MAX_CHARS);
     7dc:	be de       	rcall	.-644    	; 0x55a <parseInt.clone.2>
     7de:	60 93 a2 03 	sts	0x03A2, r22
				//updateParts();
				break;
     7e2:	08 95       	ret
			case GPS_PART_GPGGA_DILUTION:
				// Horizontal dilution of position
				break;
			case GPS_PART_GPGGA_ALTITUDE:
				gGpsLastData.pos.altitude = parseInt(gGpsText, GPS_MAX_CHARS);
     7e4:	ba de       	rcall	.-652    	; 0x55a <parseInt.clone.2>
     7e6:	70 93 9c 03 	sts	0x039C, r23
     7ea:	60 93 9b 03 	sts	0x039B, r22
#ifdef IMPERIAL_SYSTEM
        meterToFeet(&gGpsLastData.pos.altitude);
#endif // IMPERIAL_SYSTEM
				//updateParts();
				break;
     7ee:	08 95       	ret
				break;
			case GPS_PART_GPGGA_GEOID_HEIGHT_UNIT:
				// Geoid unit
				break;
			case GPS_PART_GPRMC_SPEED:
				gGpsLastData.speed = parseInt(gGpsText, GPS_MAX_CHARS); // Only use int part
     7f0:	b4 de       	rcall	.-664    	; 0x55a <parseInt.clone.2>
#ifdef METRIC_SYSTEM
				// Convert to km/h. 1 knot = 1.852 km/h = 463/250
				gGpsLastData.speed *= 463; // Might need bigger var if you go really fast! :-)
     7f2:	4f ec       	ldi	r20, 0xCF	; 207
     7f4:	51 e0       	ldi	r21, 0x01	; 1
     7f6:	64 9f       	mul	r22, r20
     7f8:	90 01       	movw	r18, r0
     7fa:	65 9f       	mul	r22, r21
     7fc:	30 0d       	add	r19, r0
     7fe:	74 9f       	mul	r23, r20
     800:	30 0d       	add	r19, r0
     802:	11 24       	eor	r1, r1
				gGpsLastData.speed /= 250;
     804:	c9 01       	movw	r24, r18
     806:	6a ef       	ldi	r22, 0xFA	; 250
     808:	70 e0       	ldi	r23, 0x00	; 0
     80a:	f5 d8       	rcall	.-3606   	; 0xfffff9f6 <__eeprom_end+0xff7ef7f6>
     80c:	70 93 a4 03 	sts	0x03A4, r23
     810:	60 93 a3 03 	sts	0x03A3, r22
#else // IMPERIAL_SYSTEM
        knotToMph(&gGpsLastData.speed);
#endif // METRIC_SYSTEM
				break;
     814:	08 95       	ret
			case GPS_PART_GPRMC_ANGLE:
				gGpsLastData.angle = parseInt(gGpsText, GPS_MAX_CHARS); // Only use int part
     816:	a1 de       	rcall	.-702    	; 0x55a <parseInt.clone.2>
     818:	70 93 a6 03 	sts	0x03A6, r23
     81c:	60 93 a5 03 	sts	0x03A5, r22
				break;
     820:	08 95       	ret
			case GPS_PART_GPRMC_DATE:
			  gGpsLastData.date = parseInt(gGpsText, GPS_MAX_CHARS);
     822:	9b de       	rcall	.-714    	; 0x55a <parseInt.clone.2>
     824:	60 93 a7 03 	sts	0x03A7, r22
     828:	70 93 a8 03 	sts	0x03A8, r23
     82c:	80 93 a9 03 	sts	0x03A9, r24
     830:	90 93 aa 03 	sts	0x03AA, r25
			  break;
     834:	08 95       	ret

static uint8_t parseHex(const char* const text, uint8_t maxLength) {
	uint8_t i = 0;
	uint32_t val = 0;
	while (text[i] != 0 && i < maxLength) {
		val *= 16;
     836:	34 e0       	ldi	r19, 0x04	; 4
     838:	88 0f       	add	r24, r24
     83a:	99 1f       	adc	r25, r25
     83c:	aa 1f       	adc	r26, r26
     83e:	bb 1f       	adc	r27, r27
     840:	3a 95       	dec	r19
     842:	d1 f7       	brne	.-12     	; 0x838 <parseGpsPart+0x1e8>
		if (text[i] >= 'A' && text[i] <= 'F') {
     844:	32 2f       	mov	r19, r18
     846:	31 54       	subi	r19, 0x41	; 65
     848:	36 30       	cpi	r19, 0x06	; 6
     84a:	20 f4       	brcc	.+8      	; 0x854 <parseGpsPart+0x204>
			val += 10 + text[i] - 'A';
     84c:	30 e0       	ldi	r19, 0x00	; 0
     84e:	27 53       	subi	r18, 0x37	; 55
     850:	30 40       	sbci	r19, 0x00	; 0
     852:	0f c0       	rjmp	.+30     	; 0x872 <parseGpsPart+0x222>
		}
		else if (text[i] >= 'a' && text[i] <= 'f') {
     854:	32 2f       	mov	r19, r18
     856:	31 56       	subi	r19, 0x61	; 97
     858:	36 30       	cpi	r19, 0x06	; 6
     85a:	20 f4       	brcc	.+8      	; 0x864 <parseGpsPart+0x214>
			val += 10 + text[i] - 'a';
     85c:	30 e0       	ldi	r19, 0x00	; 0
     85e:	27 55       	subi	r18, 0x57	; 87
     860:	30 40       	sbci	r19, 0x00	; 0
     862:	07 c0       	rjmp	.+14     	; 0x872 <parseGpsPart+0x222>
		}
		else if (text[i] >= '0' && text[i] <= '9') {
     864:	32 2f       	mov	r19, r18
     866:	30 53       	subi	r19, 0x30	; 48
     868:	3a 30       	cpi	r19, 0x0A	; 10
     86a:	58 f4       	brcc	.+22     	; 0x882 <parseGpsPart+0x232>
			val += text[i] - '0';
     86c:	30 e0       	ldi	r19, 0x00	; 0
     86e:	20 53       	subi	r18, 0x30	; 48
     870:	30 40       	sbci	r19, 0x00	; 0
     872:	44 27       	eor	r20, r20
     874:	37 fd       	sbrc	r19, 7
     876:	40 95       	com	r20
     878:	54 2f       	mov	r21, r20
     87a:	82 0f       	add	r24, r18
     87c:	93 1f       	adc	r25, r19
     87e:	a4 1f       	adc	r26, r20
     880:	b5 1f       	adc	r27, r21
}

static uint8_t parseHex(const char* const text, uint8_t maxLength) {
	uint8_t i = 0;
	uint32_t val = 0;
	while (text[i] != 0 && i < maxLength) {
     882:	21 91       	ld	r18, Z+
     884:	22 23       	and	r18, r18
     886:	21 f0       	breq	.+8      	; 0x890 <parseGpsPart+0x240>
     888:	33 e0       	ldi	r19, 0x03	; 3
     88a:	eb 3b       	cpi	r30, 0xBB	; 187
     88c:	f3 07       	cpc	r31, r19
     88e:	99 f6       	brne	.-90     	; 0x836 <parseGpsPart+0x1e6>
			case GPS_PART_CHECKSUM:
				//updateParts();
				{
				uint8_t val = parseHex(gGpsText, GPS_MAX_CHARS);
				gGpsLastData.checksumValid = (val == gGpsChecksum);
     890:	21 e0       	ldi	r18, 0x01	; 1
     892:	30 91 ae 03 	lds	r19, 0x03AE
     896:	38 13       	cpse	r19, r24
     898:	20 e0       	ldi	r18, 0x00	; 0
     89a:	20 93 ab 03 	sts	0x03AB, r18
     89e:	08 95       	ret

000008a0 <setPixel.clone.5>:
		}		
	}
}	

inline uint8_t validPos(uint8_t x, uint8_t y) {
	if (x >= GRAPHICS_WIDTH_REAL || y >= GRAPHICS_HEIGHT) {
     8a0:	88 31       	cpi	r24, 0x18	; 24
     8a2:	08 f5       	brcc	.+66     	; 0x8e6 <setPixel.clone.5+0x46>
     8a4:	68 31       	cpi	r22, 0x18	; 24
     8a6:	f8 f4       	brcc	.+62     	; 0x8e6 <setPixel.clone.5+0x46>
static void setPixel(uint8_t x, uint8_t y, uint8_t state) {
	if (!validPos(x, y)) {
		return;
	}
	uint8_t bitPos = 7-(x%8);
	uint8_t temp = gPixelData[x/8][y];
     8a8:	48 2f       	mov	r20, r24
     8aa:	46 95       	lsr	r20
     8ac:	46 95       	lsr	r20
     8ae:	46 95       	lsr	r20
     8b0:	50 e0       	ldi	r21, 0x00	; 0

static void setPixel(uint8_t x, uint8_t y, uint8_t state) {
	if (!validPos(x, y)) {
		return;
	}
	uint8_t bitPos = 7-(x%8);
     8b2:	80 95       	com	r24
     8b4:	87 70       	andi	r24, 0x07	; 7
	uint8_t temp = gPixelData[x/8][y];
	if (state == 0) {
		temp &= ~(1<<bitPos);
	}
	else if (state == 1) {
		temp |= (1<<bitPos);
     8b6:	21 e0       	ldi	r18, 0x01	; 1
     8b8:	30 e0       	ldi	r19, 0x00	; 0
     8ba:	02 c0       	rjmp	.+4      	; 0x8c0 <setPixel.clone.5+0x20>
     8bc:	22 0f       	add	r18, r18
     8be:	33 1f       	adc	r19, r19
     8c0:	8a 95       	dec	r24
     8c2:	e2 f7       	brpl	.-8      	; 0x8bc <setPixel.clone.5+0x1c>
static void setPixel(uint8_t x, uint8_t y, uint8_t state) {
	if (!validPos(x, y)) {
		return;
	}
	uint8_t bitPos = 7-(x%8);
	uint8_t temp = gPixelData[x/8][y];
     8c4:	fa 01       	movw	r30, r20
     8c6:	ee 0f       	add	r30, r30
     8c8:	ff 1f       	adc	r31, r31
     8ca:	e4 0f       	add	r30, r20
     8cc:	f5 1f       	adc	r31, r21
     8ce:	43 e0       	ldi	r20, 0x03	; 3
     8d0:	ee 0f       	add	r30, r30
     8d2:	ff 1f       	adc	r31, r31
     8d4:	4a 95       	dec	r20
     8d6:	e1 f7       	brne	.-8      	; 0x8d0 <setPixel.clone.5+0x30>
     8d8:	e6 0f       	add	r30, r22
     8da:	f1 1d       	adc	r31, r1
     8dc:	e7 5b       	subi	r30, 0xB7	; 183
     8de:	fc 4f       	sbci	r31, 0xFC	; 252
	if (state == 0) {
		temp &= ~(1<<bitPos);
	}
	else if (state == 1) {
		temp |= (1<<bitPos);
     8e0:	80 81       	ld	r24, Z
     8e2:	82 2b       	or	r24, r18
	}
	else {
		temp ^= (1<<bitPos);
	}
	gPixelData[x/8][y] = temp;
     8e4:	80 83       	st	Z, r24
     8e6:	08 95       	ret

000008e8 <drawCircle.clone.1>:
}

// Credit for this one goes to wikipedia! :-)
// Some mods done by me ( name, int -> uint8 )
static void drawCircle(uint8_t x0, uint8_t y0, uint8_t radius) {
     8e8:	ff 92       	push	r15
     8ea:	0f 93       	push	r16
     8ec:	1f 93       	push	r17
     8ee:	df 93       	push	r29
     8f0:	cf 93       	push	r28
     8f2:	00 d0       	rcall	.+0      	; 0x8f4 <drawCircle.clone.1+0xc>
     8f4:	00 d0       	rcall	.+0      	; 0x8f6 <drawCircle.clone.1+0xe>
     8f6:	0f 92       	push	r0
     8f8:	cd b7       	in	r28, 0x3d	; 61
     8fa:	de b7       	in	r29, 0x3e	; 62
     8fc:	18 2f       	mov	r17, r24
  volatile int8_t f = 1 - radius;
     8fe:	81 e0       	ldi	r24, 0x01	; 1
     900:	98 2f       	mov	r25, r24
     902:	91 1b       	sub	r25, r17
     904:	99 83       	std	Y+1, r25	; 0x01
  volatile int8_t ddF_x = 1;
     906:	8a 83       	std	Y+2, r24	; 0x02
  volatile int8_t ddF_y = -2 * radius;
     908:	81 2f       	mov	r24, r17
     90a:	81 95       	neg	r24
     90c:	88 0f       	add	r24, r24
     90e:	8b 83       	std	Y+3, r24	; 0x03
  volatile int8_t x = 0;
     910:	1c 82       	std	Y+4, r1	; 0x04
  volatile int8_t y = radius;
     912:	1d 83       	std	Y+5, r17	; 0x05
 
  setPixel(x0, y0 + radius, 1);
     914:	eb e0       	ldi	r30, 0x0B	; 11
     916:	fe 2e       	mov	r15, r30
     918:	f1 0e       	add	r15, r17
     91a:	8b e0       	ldi	r24, 0x0B	; 11
     91c:	6f 2d       	mov	r22, r15
     91e:	c0 df       	rcall	.-128    	; 0x8a0 <setPixel.clone.5>
  setPixel(x0, y0 - radius, 1);
     920:	0b e0       	ldi	r16, 0x0B	; 11
     922:	01 1b       	sub	r16, r17
     924:	8b e0       	ldi	r24, 0x0B	; 11
     926:	60 2f       	mov	r22, r16
     928:	bb df       	rcall	.-138    	; 0x8a0 <setPixel.clone.5>
  setPixel(x0 + radius, y0, 1);
     92a:	8f 2d       	mov	r24, r15
     92c:	6b e0       	ldi	r22, 0x0B	; 11
     92e:	b8 df       	rcall	.-144    	; 0x8a0 <setPixel.clone.5>
  setPixel(x0 - radius, y0, 1);
     930:	80 2f       	mov	r24, r16
     932:	6b e0       	ldi	r22, 0x0B	; 11
     934:	b5 df       	rcall	.-150    	; 0x8a0 <setPixel.clone.5>
    }
    x++;
    ddF_x += 2;
    f += ddF_x;    
    setPixel(x0 + x, y0 + y, 1);
    setPixel(x0 - x, y0 + y, 1);
     936:	1b e0       	ldi	r17, 0x0B	; 11
     938:	4b c0       	rjmp	.+150    	; 0x9d0 <drawCircle.clone.1+0xe8>
 
  while(x < y) {
    // ddF_x == 2 * x + 1;
    // ddF_y == -2 * y;
    // f == x*x + y*y - radius*radius + 2*x - y + 1;
    if(f >= 0) {
     93a:	89 81       	ldd	r24, Y+1	; 0x01
     93c:	87 fd       	sbrc	r24, 7
     93e:	0a c0       	rjmp	.+20     	; 0x954 <drawCircle.clone.1+0x6c>
      y--;
     940:	8d 81       	ldd	r24, Y+5	; 0x05
     942:	81 50       	subi	r24, 0x01	; 1
     944:	8d 83       	std	Y+5, r24	; 0x05
      ddF_y += 2;
     946:	8b 81       	ldd	r24, Y+3	; 0x03
     948:	8e 5f       	subi	r24, 0xFE	; 254
     94a:	8b 83       	std	Y+3, r24	; 0x03
      f += ddF_y;
     94c:	99 81       	ldd	r25, Y+1	; 0x01
     94e:	8b 81       	ldd	r24, Y+3	; 0x03
     950:	89 0f       	add	r24, r25
     952:	89 83       	std	Y+1, r24	; 0x01
    }
    x++;
     954:	8c 81       	ldd	r24, Y+4	; 0x04
     956:	8f 5f       	subi	r24, 0xFF	; 255
     958:	8c 83       	std	Y+4, r24	; 0x04
    ddF_x += 2;
     95a:	8a 81       	ldd	r24, Y+2	; 0x02
     95c:	8e 5f       	subi	r24, 0xFE	; 254
     95e:	8a 83       	std	Y+2, r24	; 0x02
    f += ddF_x;    
     960:	99 81       	ldd	r25, Y+1	; 0x01
     962:	8a 81       	ldd	r24, Y+2	; 0x02
     964:	89 0f       	add	r24, r25
     966:	89 83       	std	Y+1, r24	; 0x01
    setPixel(x0 + x, y0 + y, 1);
     968:	8c 81       	ldd	r24, Y+4	; 0x04
     96a:	6d 81       	ldd	r22, Y+5	; 0x05
     96c:	65 5f       	subi	r22, 0xF5	; 245
     96e:	85 5f       	subi	r24, 0xF5	; 245
     970:	97 df       	rcall	.-210    	; 0x8a0 <setPixel.clone.5>
    setPixel(x0 - x, y0 + y, 1);
     972:	8c 81       	ldd	r24, Y+4	; 0x04
     974:	6d 81       	ldd	r22, Y+5	; 0x05
     976:	65 5f       	subi	r22, 0xF5	; 245
     978:	91 2f       	mov	r25, r17
     97a:	98 1b       	sub	r25, r24
     97c:	89 2f       	mov	r24, r25
     97e:	90 df       	rcall	.-224    	; 0x8a0 <setPixel.clone.5>
    setPixel(x0 + x, y0 - y, 1);
     980:	8c 81       	ldd	r24, Y+4	; 0x04
     982:	9d 81       	ldd	r25, Y+5	; 0x05
     984:	61 2f       	mov	r22, r17
     986:	69 1b       	sub	r22, r25
     988:	85 5f       	subi	r24, 0xF5	; 245
     98a:	8a df       	rcall	.-236    	; 0x8a0 <setPixel.clone.5>
    setPixel(x0 - x, y0 - y, 1);
     98c:	8c 81       	ldd	r24, Y+4	; 0x04
     98e:	9d 81       	ldd	r25, Y+5	; 0x05
     990:	61 2f       	mov	r22, r17
     992:	69 1b       	sub	r22, r25
     994:	91 2f       	mov	r25, r17
     996:	98 1b       	sub	r25, r24
     998:	89 2f       	mov	r24, r25
     99a:	82 df       	rcall	.-252    	; 0x8a0 <setPixel.clone.5>
    setPixel(x0 + y, y0 + x, 1);
     99c:	8d 81       	ldd	r24, Y+5	; 0x05
     99e:	6c 81       	ldd	r22, Y+4	; 0x04
     9a0:	65 5f       	subi	r22, 0xF5	; 245
     9a2:	85 5f       	subi	r24, 0xF5	; 245
     9a4:	7d df       	rcall	.-262    	; 0x8a0 <setPixel.clone.5>
    setPixel(x0 - y, y0 + x, 1);
     9a6:	8d 81       	ldd	r24, Y+5	; 0x05
     9a8:	6c 81       	ldd	r22, Y+4	; 0x04
     9aa:	65 5f       	subi	r22, 0xF5	; 245
     9ac:	91 2f       	mov	r25, r17
     9ae:	98 1b       	sub	r25, r24
     9b0:	89 2f       	mov	r24, r25
     9b2:	76 df       	rcall	.-276    	; 0x8a0 <setPixel.clone.5>
    setPixel(x0 + y, y0 - x, 1);
     9b4:	8d 81       	ldd	r24, Y+5	; 0x05
     9b6:	9c 81       	ldd	r25, Y+4	; 0x04
     9b8:	61 2f       	mov	r22, r17
     9ba:	69 1b       	sub	r22, r25
     9bc:	85 5f       	subi	r24, 0xF5	; 245
     9be:	70 df       	rcall	.-288    	; 0x8a0 <setPixel.clone.5>
    setPixel(x0 - y, y0 - x, 1);
     9c0:	8d 81       	ldd	r24, Y+5	; 0x05
     9c2:	9c 81       	ldd	r25, Y+4	; 0x04
     9c4:	61 2f       	mov	r22, r17
     9c6:	69 1b       	sub	r22, r25
     9c8:	91 2f       	mov	r25, r17
     9ca:	98 1b       	sub	r25, r24
     9cc:	89 2f       	mov	r24, r25
     9ce:	68 df       	rcall	.-304    	; 0x8a0 <setPixel.clone.5>
  setPixel(x0, y0 + radius, 1);
  setPixel(x0, y0 - radius, 1);
  setPixel(x0 + radius, y0, 1);
  setPixel(x0 - radius, y0, 1);
 
  while(x < y) {
     9d0:	9c 81       	ldd	r25, Y+4	; 0x04
     9d2:	8d 81       	ldd	r24, Y+5	; 0x05
     9d4:	98 17       	cp	r25, r24
     9d6:	0c f4       	brge	.+2      	; 0x9da <drawCircle.clone.1+0xf2>
     9d8:	b0 cf       	rjmp	.-160    	; 0x93a <drawCircle.clone.1+0x52>
    setPixel(x0 + y, y0 + x, 1);
    setPixel(x0 - y, y0 + x, 1);
    setPixel(x0 + y, y0 - x, 1);
    setPixel(x0 - y, y0 - x, 1);
  }
}
     9da:	0f 90       	pop	r0
     9dc:	0f 90       	pop	r0
     9de:	0f 90       	pop	r0
     9e0:	0f 90       	pop	r0
     9e2:	0f 90       	pop	r0
     9e4:	cf 91       	pop	r28
     9e6:	df 91       	pop	r29
     9e8:	1f 91       	pop	r17
     9ea:	0f 91       	pop	r16
     9ec:	ff 90       	pop	r15
     9ee:	08 95       	ret

000009f0 <drawLine>:
	uint8_t temp = *a;
	*a = *b;
	*b = temp;
}

static void drawLine(uint8_t x0, uint8_t y0, uint8_t x1, uint8_t y1) {
     9f0:	af 92       	push	r10
     9f2:	bf 92       	push	r11
     9f4:	cf 92       	push	r12
     9f6:	df 92       	push	r13
     9f8:	ef 92       	push	r14
     9fa:	ff 92       	push	r15
     9fc:	0f 93       	push	r16
     9fe:	1f 93       	push	r17
     a00:	38 2f       	mov	r19, r24
     a02:	56 2f       	mov	r21, r22
     a04:	14 2f       	mov	r17, r20
	uint8_t steep = abs(y1 - y0) > abs(x1 - x0);
     a06:	a2 2f       	mov	r26, r18
     a08:	b0 e0       	ldi	r27, 0x00	; 0
     a0a:	a6 1b       	sub	r26, r22
     a0c:	b1 09       	sbc	r27, r1
     a0e:	b7 ff       	sbrs	r27, 7
     a10:	03 c0       	rjmp	.+6      	; 0xa18 <drawLine+0x28>
     a12:	b0 95       	com	r27
     a14:	a1 95       	neg	r26
     a16:	bf 4f       	sbci	r27, 0xFF	; 255
     a18:	e1 2f       	mov	r30, r17
     a1a:	f0 e0       	ldi	r31, 0x00	; 0
     a1c:	e3 1b       	sub	r30, r19
     a1e:	f1 09       	sbc	r31, r1
     a20:	f7 ff       	sbrs	r31, 7
     a22:	03 c0       	rjmp	.+6      	; 0xa2a <drawLine+0x3a>
     a24:	f0 95       	com	r31
     a26:	e1 95       	neg	r30
     a28:	ff 4f       	sbci	r31, 0xFF	; 255
     a2a:	01 e0       	ldi	r16, 0x01	; 1
     a2c:	ea 17       	cp	r30, r26
     a2e:	fb 07       	cpc	r31, r27
     a30:	14 f0       	brlt	.+4      	; 0xa36 <drawLine+0x46>
     a32:	00 e0       	ldi	r16, 0x00	; 0
     a34:	06 c0       	rjmp	.+12     	; 0xa42 <drawLine+0x52>
	if (steep) {
     a36:	81 2f       	mov	r24, r17
  }
}

static void swap(uint8_t* a, uint8_t* b) {
	uint8_t temp = *a;
	*a = *b;
     a38:	12 2f       	mov	r17, r18
	*b = temp;
     a3a:	28 2f       	mov	r18, r24
}

static void drawLine(uint8_t x0, uint8_t y0, uint8_t x1, uint8_t y1) {
	uint8_t steep = abs(y1 - y0) > abs(x1 - x0);
	if (steep) {
     a3c:	83 2f       	mov	r24, r19
  }
}

static void swap(uint8_t* a, uint8_t* b) {
	uint8_t temp = *a;
	*a = *b;
     a3e:	35 2f       	mov	r19, r21
	*b = temp;
     a40:	58 2f       	mov	r21, r24
	uint8_t steep = abs(y1 - y0) > abs(x1 - x0);
	if (steep) {
		swap(&x0, &y0);
		swap(&x1, &y1);
	}		 
	if (x0 > x1) {
     a42:	13 17       	cp	r17, r19
     a44:	30 f4       	brcc	.+12     	; 0xa52 <drawLine+0x62>
     a46:	85 2f       	mov	r24, r21
  }
}

static void swap(uint8_t* a, uint8_t* b) {
	uint8_t temp = *a;
	*a = *b;
     a48:	52 2f       	mov	r21, r18
	*b = temp;
     a4a:	28 2f       	mov	r18, r24
	uint8_t steep = abs(y1 - y0) > abs(x1 - x0);
	if (steep) {
		swap(&x0, &y0);
		swap(&x1, &y1);
	}		 
	if (x0 > x1) {
     a4c:	83 2f       	mov	r24, r19
     a4e:	31 2f       	mov	r19, r17
     a50:	18 2f       	mov	r17, r24
		swap(&x0, &x1);
		swap(&y0, &y1);
	}		 
	int8_t deltax = x1 - x0;
     a52:	f1 2e       	mov	r15, r17
     a54:	f3 1a       	sub	r15, r19
	int8_t deltay = abs(y1 - y0);
     a56:	e2 2f       	mov	r30, r18
     a58:	f0 e0       	ldi	r31, 0x00	; 0
     a5a:	e5 1b       	sub	r30, r21
     a5c:	f1 09       	sbc	r31, r1
     a5e:	f7 ff       	sbrs	r31, 7
     a60:	03 c0       	rjmp	.+6      	; 0xa68 <drawLine+0x78>
     a62:	f0 95       	com	r31
     a64:	e1 95       	neg	r30
     a66:	ff 4f       	sbci	r31, 0xFF	; 255
     a68:	ee 2e       	mov	r14, r30
	int8_t error = deltax / 2;
     a6a:	8f 2d       	mov	r24, r15
     a6c:	62 e0       	ldi	r22, 0x02	; 2
     a6e:	b6 d7       	rcall	.+3948   	; 0x19dc <__divmodqi4>
     a70:	d8 2e       	mov	r13, r24
	int8_t ystep;
	int8_t y = y0;
     a72:	b5 2e       	mov	r11, r21
	if (y0 < y1) { 
     a74:	52 17       	cp	r21, r18
     a76:	18 f4       	brcc	.+6      	; 0xa7e <drawLine+0x8e>
		ystep = 1; 
     a78:	aa 24       	eor	r10, r10
     a7a:	a3 94       	inc	r10
     a7c:	02 c0       	rjmp	.+4      	; 0xa82 <drawLine+0x92>
	}
	else {
		ystep = -1;
     a7e:	aa 24       	eor	r10, r10
     a80:	aa 94       	dec	r10
	}		
	for (uint8_t x = x0; x <= x1; ++x) {
     a82:	c3 2e       	mov	r12, r19
     a84:	0e c0       	rjmp	.+28     	; 0xaa2 <drawLine+0xb2>
		if (steep) {
     a86:	00 23       	and	r16, r16
     a88:	19 f0       	breq	.+6      	; 0xa90 <drawLine+0xa0>
			setPixel(y, x, 1);
     a8a:	8b 2d       	mov	r24, r11
     a8c:	6c 2d       	mov	r22, r12
     a8e:	02 c0       	rjmp	.+4      	; 0xa94 <drawLine+0xa4>
		}
		else { 
			setPixel(x, y, 1);
     a90:	8c 2d       	mov	r24, r12
     a92:	6b 2d       	mov	r22, r11
     a94:	05 df       	rcall	.-502    	; 0x8a0 <setPixel.clone.5>
		}			
		error = error - deltay;
     a96:	de 18       	sub	r13, r14
		if (error < 0) {
     a98:	d7 fe       	sbrs	r13, 7
     a9a:	02 c0       	rjmp	.+4      	; 0xaa0 <drawLine+0xb0>
			y = y + ystep;
     a9c:	ba 0c       	add	r11, r10
			error = error + deltax;
     a9e:	df 0c       	add	r13, r15
		ystep = 1; 
	}
	else {
		ystep = -1;
	}		
	for (uint8_t x = x0; x <= x1; ++x) {
     aa0:	c3 94       	inc	r12
     aa2:	1c 15       	cp	r17, r12
     aa4:	80 f7       	brcc	.-32     	; 0xa86 <drawLine+0x96>
		if (error < 0) {
			y = y + ystep;
			error = error + deltax;
		}
	}				 
}
     aa6:	1f 91       	pop	r17
     aa8:	0f 91       	pop	r16
     aaa:	ff 90       	pop	r15
     aac:	ef 90       	pop	r14
     aae:	df 90       	pop	r13
     ab0:	cf 90       	pop	r12
     ab2:	bf 90       	pop	r11
     ab4:	af 90       	pop	r10
     ab6:	08 95       	ret

00000ab8 <main>:
#endif //GRAPICSENABLED
}

void main(void) __attribute__ ((noreturn)); // Main never returns, saves a few bytes

void main(void) {
     ab8:	df 93       	push	r29
     aba:	cf 93       	push	r28
     abc:	cd b7       	in	r28, 0x3d	; 61
     abe:	de b7       	in	r29, 0x3e	; 62
     ac0:	63 97       	sbiw	r28, 0x13	; 19
     ac2:	0f b6       	in	r0, 0x3f	; 63
     ac4:	f8 94       	cli
     ac6:	de bf       	out	0x3e, r29	; 62
     ac8:	0f be       	out	0x3f, r0	; 63
     aca:	cd bf       	out	0x3d, r28	; 61
static uint8_t gKeyPressTime = 0;

static void setup(void)
{
	// Port setup
	PORTD = KEY; //key pullup & led off
     acc:	20 e1       	ldi	r18, 0x10	; 16
     ace:	2b b9       	out	0x0b, r18	; 11
	DDRD  = LED; // led output
     ad0:	88 e0       	ldi	r24, 0x08	; 8
     ad2:	8a b9       	out	0x0a, r24	; 10
	PORTB &= ~OUT1;
     ad4:	29 98       	cbi	0x05, 1	; 5
	DDRB  = OUT2 | SS;
     ad6:	8c e0       	ldi	r24, 0x0C	; 12
     ad8:	84 b9       	out	0x04, r24	; 4
	
	TIMSK1 |= (1 << TOIE1); // Enable overflow interrupt
     ada:	80 91 6f 00 	lds	r24, 0x006F
     ade:	81 60       	ori	r24, 0x01	; 1
     ae0:	80 93 6f 00 	sts	0x006F, r24
	TCCR1B |= (1 << CS11); // Start timer at Fcpu/8
     ae4:	80 91 81 00 	lds	r24, 0x0081
     ae8:	82 60       	ori	r24, 0x02	; 2
     aea:	80 93 81 00 	sts	0x0081, r24
static uint16_t gActiveTextLastLine = 2;
static uint8_t gLineType = LINE_TYPE_UNKNOWN;

static void setupLine() {
  // Line trigger
	EICRA = (1<<ISC00) | (1<<ISC01); //set INT0 as rising edge trigger
     aee:	83 e0       	ldi	r24, 0x03	; 3
     af0:	80 93 69 00 	sts	0x0069, r24
	EIMSK = (1<<INT0); //enable INTO in global interrupt mask
     af4:	31 e0       	ldi	r19, 0x01	; 1
     af6:	3d bb       	out	0x1d, r19	; 29
	ACSR = (1<<ACD); //Comparator disabled
     af8:	80 e8       	ldi	r24, 0x80	; 128
     afa:	80 bf       	out	0x30, r24	; 48
	ADCSRB = 0x00;
     afc:	10 92 7b 00 	sts	0x007B, r1

	// SPI setup
	SPDR = 0x00; // Clear spi reg or thrash will show on video
     b00:	1e bc       	out	0x2e, r1	; 46
#ifdef TEXT_SMALL_ENABLED
	SPSR |= (1<<SPI2X); // Set dual speed
#else
	SPSR &= ~(1<<SPI2X); // Clear dual speed
     b02:	8d b5       	in	r24, 0x2d	; 45
     b04:	8e 7f       	andi	r24, 0xFE	; 254
     b06:	8d bd       	out	0x2d, r24	; 45
#endif //TEXT_SMALL_ENABLED
	SPCR = (1<<SPE) | (1<<MSTR) | (1<<CPHA);
     b08:	84 e5       	ldi	r24, 0x54	; 84
     b0a:	8c bd       	out	0x2c, r24	; 44
	
#ifdef TEXT_ENABLED
	gActiveTextLine = gTextLines[gActiveTextId];
     b0c:	e0 91 76 01 	lds	r30, 0x0176
     b10:	f0 e0       	ldi	r31, 0x00	; 0
     b12:	ee 0f       	add	r30, r30
     b14:	ff 1f       	adc	r31, r31
     b16:	ec 5a       	subi	r30, 0xAC	; 172
     b18:	fe 4f       	sbci	r31, 0xFE	; 254
     b1a:	80 81       	ld	r24, Z
     b1c:	91 81       	ldd	r25, Z+1	; 0x01
     b1e:	90 93 79 01 	sts	0x0179, r25
     b22:	80 93 78 01 	sts	0x0178, r24

#else

static void setupAdc() {
  // ADC setup
	DIDR0 = 0x00;
     b26:	10 92 7e 00 	sts	0x007E, r1
	ADMUX |= (1<<REFS0); // Ref is AVCC
     b2a:	80 91 7c 00 	lds	r24, 0x007C
     b2e:	80 64       	ori	r24, 0x40	; 64
     b30:	80 93 7c 00 	sts	0x007C, r24
	ADCSRA |= (1<<ADPS2) | (1<<ADPS1); // | (1<<ADPS0); 
     b34:	80 91 7a 00 	lds	r24, 0x007A
     b38:	86 60       	ori	r24, 0x06	; 6
     b3a:	80 93 7a 00 	sts	0x007A, r24
	ADCSRB = 0; // Free running
     b3e:	10 92 7b 00 	sts	0x007B, r1
static uint8_t gGpsTextPartLength = 0;
#endif //GPS_PART_TEXT

static void setupGps() {
	// USART setup
  UBRR0H = (uint8_t)(GPS_UBRR>>8); // set baud
     b42:	30 93 c5 00 	sts	0x00C5, r19
  UBRR0L = (uint8_t)GPS_UBRR;
     b46:	87 e3       	ldi	r24, 0x37	; 55
     b48:	80 93 c4 00 	sts	0x00C4, r24
  UCSR0C = (3<<UCSZ00); // 8N1
     b4c:	86 e0       	ldi	r24, 0x06	; 6
     b4e:	80 93 c2 00 	sts	0x00C2, r24
  UCSR0B = (1<<RXEN0); // Enable RX
     b52:	20 93 c1 00 	sts	0x00C1, r18

#ifdef GPS_ENABLED
	setupGps();
#endif //GPS_ENABLED
	
	sei();
     b56:	78 94       	sei
	setup();

	while(1) {
    
#ifdef GPS_ENABLED
    if(UCSR0A & (1<<RXC0)) {
     b58:	80 91 c0 00 	lds	r24, 0x00C0
     b5c:	87 ff       	sbrs	r24, 7
     b5e:	81 c0       	rjmp	.+258    	; 0xc62 <main+0x1aa>
      decodeGpsData(UDR0);
     b60:	00 91 c6 00 	lds	r16, 0x00C6
#endif //STATISTICS_ENABLED
	}		  
}

static void decodeGpsData(char data) {
	if (gGpsTextPartStep == GPS_PART_FINISHED && data != '$') {
     b64:	90 91 66 01 	lds	r25, 0x0166
     b68:	9f 3f       	cpi	r25, 0xFF	; 255
     b6a:	21 f4       	brne	.+8      	; 0xb74 <main+0xbc>
     b6c:	04 32       	cpi	r16, 0x24	; 36
     b6e:	09 f0       	breq	.+2      	; 0xb72 <main+0xba>
     b70:	78 c0       	rjmp	.+240    	; 0xc62 <main+0x1aa>
     b72:	10 c0       	rjmp	.+32     	; 0xb94 <main+0xdc>
		return;
	}
	
	switch (data) {
     b74:	04 32       	cpi	r16, 0x24	; 36
     b76:	71 f0       	breq	.+28     	; 0xb94 <main+0xdc>
     b78:	05 32       	cpi	r16, 0x25	; 37
     b7a:	30 f4       	brcc	.+12     	; 0xb88 <main+0xd0>
     b7c:	0a 30       	cpi	r16, 0x0A	; 10
     b7e:	49 f1       	breq	.+82     	; 0xbd2 <main+0x11a>
     b80:	0d 30       	cpi	r16, 0x0D	; 13
     b82:	09 f0       	breq	.+2      	; 0xb86 <main+0xce>
     b84:	5b c0       	rjmp	.+182    	; 0xc3c <main+0x184>
     b86:	25 c0       	rjmp	.+74     	; 0xbd2 <main+0x11a>
     b88:	0a 32       	cpi	r16, 0x2A	; 42
     b8a:	99 f0       	breq	.+38     	; 0xbb2 <main+0xfa>
     b8c:	0c 32       	cpi	r16, 0x2C	; 44
     b8e:	09 f0       	breq	.+2      	; 0xb92 <main+0xda>
     b90:	55 c0       	rjmp	.+170    	; 0xc3c <main+0x184>
     b92:	0a c0       	rjmp	.+20     	; 0xba8 <main+0xf0>
	case '$':
		gGpsTextPos = 0;
     b94:	10 92 ac 03 	sts	0x03AC, r1
		gGpsTextType = GPS_TYPE_NONE;
     b98:	10 92 ad 03 	sts	0x03AD, r1
		gGpsChecksum = 0;
     b9c:	10 92 ae 03 	sts	0x03AE, r1
		gGpsTextPartStep = 0;
     ba0:	10 92 66 01 	sts	0x0166, r1
		clearGpsText();
     ba4:	4e db       	rcall	.-2404   	; 0x242 <clearGpsText>
     ba6:	5d c0       	rjmp	.+186    	; 0xc62 <main+0x1aa>
		clearFullGpsText();
		gGpsFullTextPos = 0;
#endif // FULLGPSTEXT
		break;
	case ',':
		gGpsChecksum ^= data;
     ba8:	80 91 ae 03 	lds	r24, 0x03AE
     bac:	80 27       	eor	r24, r16
     bae:	80 93 ae 03 	sts	0x03AE, r24
	case '*':
		parseGpsPart();
     bb2:	4e dd       	rcall	.-1380   	; 0x650 <parseGpsPart>
		clearGpsText();		
     bb4:	46 db       	rcall	.-2420   	; 0x242 <clearGpsText>
		gGpsTextPos = 0;
     bb6:	10 92 ac 03 	sts	0x03AC, r1
		gGpsTextPartStep++;
     bba:	80 91 66 01 	lds	r24, 0x0166
     bbe:	8f 5f       	subi	r24, 0xFF	; 255
     bc0:	80 93 66 01 	sts	0x0166, r24
		if (data =='*') {
     bc4:	0a 32       	cpi	r16, 0x2A	; 42
     bc6:	09 f0       	breq	.+2      	; 0xbca <main+0x112>
     bc8:	4c c0       	rjmp	.+152    	; 0xc62 <main+0x1aa>
			gGpsTextPartStep = GPS_PART_CHECKSUM;
     bca:	88 ec       	ldi	r24, 0xC8	; 200
     bcc:	80 93 66 01 	sts	0x0166, r24
     bd0:	48 c0       	rjmp	.+144    	; 0xc62 <main+0x1aa>
		}			
		break;
	case '\r':
	case '\n':
	  parseGpsPart();
     bd2:	3e dd       	rcall	.-1412   	; 0x650 <parseGpsPart>
	  gGpsTextPartStep = GPS_PART_FINISHED;
     bd4:	8f ef       	ldi	r24, 0xFF	; 255
     bd6:	80 93 66 01 	sts	0x0166, r24
	}	  
}
#endif //STATISTICS_ENABLED

static void finishGpsDecoding() {
	if (gGpsLastData.checksumValid != 0) {
     bda:	80 91 ab 03 	lds	r24, 0x03AB
     bde:	88 23       	and	r24, r24
     be0:	09 f4       	brne	.+2      	; 0xbe4 <main+0x12c>
     be2:	3f c0       	rjmp	.+126    	; 0xc62 <main+0x1aa>
#ifdef STATISTICS_ENABLED
		updateDistanceTraveled();
#endif //STATISTICS_ENABLED    
		gGpsLastValidData = gGpsLastData;
     be4:	aa eb       	ldi	r26, 0xBA	; 186
     be6:	b3 e0       	ldi	r27, 0x03	; 3
     be8:	e3 e9       	ldi	r30, 0x93	; 147
     bea:	f3 e0       	ldi	r31, 0x03	; 3
     bec:	89 e1       	ldi	r24, 0x19	; 25
     bee:	01 90       	ld	r0, Z+
     bf0:	0d 92       	st	X+, r0
     bf2:	81 50       	subi	r24, 0x01	; 1
     bf4:	e1 f7       	brne	.-8      	; 0xbee <main+0x136>
		gGpsValidData = 1;
     bf6:	81 e0       	ldi	r24, 0x01	; 1
     bf8:	80 93 d3 03 	sts	0x03D3, r24
		gLastFix = gTime;
     bfc:	80 91 d4 03 	lds	r24, 0x03D4
     c00:	90 91 d5 03 	lds	r25, 0x03D5
     c04:	90 93 d7 03 	sts	0x03D7, r25
     c08:	80 93 d6 03 	sts	0x03D6, r24
		gInfoShow = gGpsLastValidData.speed < INFO_MIN_SPEED_SHOW;
     c0c:	80 91 ca 03 	lds	r24, 0x03CA
     c10:	90 91 cb 03 	lds	r25, 0x03CB
     c14:	21 e0       	ldi	r18, 0x01	; 1
     c16:	83 30       	cpi	r24, 0x03	; 3
     c18:	91 05       	cpc	r25, r1
     c1a:	08 f0       	brcs	.+2      	; 0xc1e <main+0x166>
     c1c:	20 e0       	ldi	r18, 0x00	; 0
     c1e:	20 93 67 01 	sts	0x0167, r18

		if (gHomePosSet == 0) {
     c22:	20 91 d8 03 	lds	r18, 0x03D8
     c26:	22 23       	and	r18, r18
     c28:	e1 f4       	brne	.+56     	; 0xc62 <main+0x1aa>
			if (gGpsLastValidData.fix != 0) {
     c2a:	20 91 c8 03 	lds	r18, 0x03C8
     c2e:	22 23       	and	r18, r18
     c30:	c1 f0       	breq	.+48     	; 0xc62 <main+0x1aa>
		    else {
			    ++gHomeFixCount;
		    }
#endif //HOME_FIRST_FIX
#ifdef HOME_AUTO_SET
        if (gGpsLastValidData.speed >= HOME_FIX_MIN_SPEED) {
     c32:	8a 30       	cpi	r24, 0x0A	; 10
     c34:	91 05       	cpc	r25, r1
     c36:	a8 f0       	brcs	.+42     	; 0xc62 <main+0x1aa>
			    setHomePos();
     c38:	0c db       	rcall	.-2536   	; 0x252 <setHomePos>
     c3a:	13 c0       	rjmp	.+38     	; 0xc62 <main+0x1aa>
	  gGpsTextPartStep = GPS_PART_FINISHED;
	  finishGpsDecoding();
		return;
		break;
	default:
		gGpsText[gGpsTextPos] = data;
     c3c:	80 91 ac 03 	lds	r24, 0x03AC
     c40:	e8 2f       	mov	r30, r24
     c42:	f0 e0       	ldi	r31, 0x00	; 0
     c44:	e1 55       	subi	r30, 0x51	; 81
     c46:	fc 4f       	sbci	r31, 0xFC	; 252
     c48:	00 83       	st	Z, r16
		if (gGpsTextPartStep != GPS_PART_CHECKSUM) {
     c4a:	98 3c       	cpi	r25, 0xC8	; 200
     c4c:	29 f0       	breq	.+10     	; 0xc58 <main+0x1a0>
		  gGpsChecksum ^= data;
     c4e:	90 91 ae 03 	lds	r25, 0x03AE
     c52:	90 27       	eor	r25, r16
     c54:	90 93 ae 03 	sts	0x03AE, r25
		}
		if (gGpsTextPos < GPS_MAX_CHARS-1) {
     c58:	8a 30       	cpi	r24, 0x0A	; 10
     c5a:	18 f4       	brcc	.+6      	; 0xc62 <main+0x1aa>
		  ++gGpsTextPos;
     c5c:	8f 5f       	subi	r24, 0xFF	; 255
     c5e:	80 93 ac 03 	sts	0x03AC, r24
    }
#endif //GPS_ENABLED
    
#ifndef DEBUG
		if((PIND & KEY) != KEY) {
     c62:	4c 99       	sbic	0x09, 4	; 9
     c64:	12 c0       	rjmp	.+36     	; 0xc8a <main+0x1d2>
			gKeyPressed = 1;
     c66:	81 e0       	ldi	r24, 0x01	; 1
     c68:	80 93 91 03 	sts	0x0391, r24
			if(gKeyPressTime > 50) {
     c6c:	80 91 92 03 	lds	r24, 0x0392
     c70:	83 33       	cpi	r24, 0x33	; 51
     c72:	98 f0       	brcs	.+38     	; 0xc9a <main+0x1e2>
				PORTD |= LED; // long press!
     c74:	5b 9a       	sbi	0x0b, 3	; 11
#ifdef GPS_ENABLED
#ifdef HOME_SET_WITH_BUTTON
      if (gGpsLastData.checksumValid != 0 && gGpsLastData.fix != 0) {
     c76:	80 91 ab 03 	lds	r24, 0x03AB
     c7a:	88 23       	and	r24, r24
     c7c:	71 f0       	breq	.+28     	; 0xc9a <main+0x1e2>
     c7e:	80 91 a1 03 	lds	r24, 0x03A1
     c82:	88 23       	and	r24, r24
     c84:	51 f0       	breq	.+20     	; 0xc9a <main+0x1e2>
				setHomePos();
     c86:	e5 da       	rcall	.-2614   	; 0x252 <setHomePos>
     c88:	08 c0       	rjmp	.+16     	; 0xc9a <main+0x1e2>
#endif //HOME_SET_WITH_BUTTON
#endif //GPS_ENABLED
			}
		}
		else {
			if (gKeyPressed) {
     c8a:	80 91 91 03 	lds	r24, 0x0391
     c8e:	81 11       	cpse	r24, r1
				PORTD &= ~LED;  // led off
     c90:	5b 98       	cbi	0x0b, 3	; 11
			}				
			gKeyPressed = 0;
     c92:	10 92 91 03 	sts	0x0391, r1
			gKeyPressTime = 0;
     c96:	10 92 92 03 	sts	0x0392, r1
#ifdef DEBUG
		gUpdateScreenData = 2;
#endif //DEBUG

#ifdef TEXT_ENABLED
    if (gUpdateScreenData == 2) {
     c9a:	80 91 77 01 	lds	r24, 0x0177
     c9e:	82 30       	cpi	r24, 0x02	; 2
     ca0:	09 f0       	breq	.+2      	; 0xca4 <main+0x1ec>
     ca2:	7a c0       	rjmp	.+244    	; 0xd98 <main+0x2e0>
		  gUpdateScreenData = 0;
     ca4:	10 92 77 01 	sts	0x0177, r1
}
#endif // TEXT_INVERTED_ENABLED

static void updateTextCharStartPos(uint8_t textId) {
	for (uint8_t j = 0; j < TEXT_LINE_MAX_CHARS; ++j) {
		uint8_t character = gText[textId][j];
     ca8:	80 91 76 01 	lds	r24, 0x0176
     cac:	90 e0       	ldi	r25, 0x00	; 0
#endif //GRAPICSENABLED
}

void main(void) __attribute__ ((noreturn)); // Main never returns, saves a few bytes

void main(void) {
     cae:	fc 01       	movw	r30, r24
     cb0:	65 e0       	ldi	r22, 0x05	; 5
     cb2:	ee 0f       	add	r30, r30
     cb4:	ff 1f       	adc	r31, r31
     cb6:	6a 95       	dec	r22
     cb8:	e1 f7       	brne	.-8      	; 0xcb2 <main+0x1fa>
     cba:	e8 0f       	add	r30, r24
     cbc:	f9 1f       	adc	r31, r25
     cbe:	e5 58       	subi	r30, 0x85	; 133
     cc0:	fe 4f       	sbci	r31, 0xFE	; 254
		gUpdateScreenData = 2;
#endif //DEBUG

#ifdef TEXT_ENABLED
    if (gUpdateScreenData == 2) {
		  gUpdateScreenData = 0;
     cc2:	53 ee       	ldi	r21, 0xE3	; 227
     cc4:	e5 2e       	mov	r14, r21
     cc6:	53 e0       	ldi	r21, 0x03	; 3
     cc8:	f5 2e       	mov	r15, r21
#endif //GRAPICSENABLED
}

void main(void) __attribute__ ((noreturn)); // Main never returns, saves a few bytes

void main(void) {
     cca:	d7 01       	movw	r26, r14
     ccc:	80 e0       	ldi	r24, 0x00	; 0
     cce:	90 e0       	ldi	r25, 0x00	; 0
     cd0:	21 91       	ld	r18, Z+
		int16_t eepromPos;
		if (character == ' ' || character == 0) {
     cd2:	20 32       	cpi	r18, 0x20	; 32
     cd4:	e1 f0       	breq	.+56     	; 0xd0e <main+0x256>
     cd6:	22 23       	and	r18, r18
     cd8:	d1 f0       	breq	.+52     	; 0xd0e <main+0x256>
			eepromPos = -1;
		}
		else if (character < CHAR_OFFSET + CHAR_LENGTH) {
     cda:	2b 35       	cpi	r18, 0x5B	; 91
     cdc:	50 f4       	brcc	.+20     	; 0xcf2 <main+0x23a>
			uint16_t charPos = ((character - CHAR_OFFSET) * TEXT_CHAR_HEIGHT);
     cde:	82 2f       	mov	r24, r18
     ce0:	90 e0       	ldi	r25, 0x00	; 0
     ce2:	43 e0       	ldi	r20, 0x03	; 3
     ce4:	88 0f       	add	r24, r24
     ce6:	99 1f       	adc	r25, r25
     ce8:	4a 95       	dec	r20
     cea:	e1 f7       	brne	.-8      	; 0xce4 <main+0x22c>
			eepromPos = (int16_t)&(oem6x8[charPos]);
     cec:	88 52       	subi	r24, 0x28	; 40
     cee:	91 40       	sbci	r25, 0x01	; 1
     cf0:	10 c0       	rjmp	.+32     	; 0xd12 <main+0x25a>
		}
#ifdef TEXT_USE_SPECIAL_CHARS
		else if (character > CHAR_SPECIAL_OFFSET && character < CHAR_SPECIAL_OFFSET+CHAR_SPECIAL_LENGTH) {
     cf2:	32 2f       	mov	r19, r18
     cf4:	35 56       	subi	r19, 0x65	; 101
     cf6:	39 30       	cpi	r19, 0x09	; 9
     cf8:	60 f4       	brcc	.+24     	; 0xd12 <main+0x25a>
			uint16_t charPos = ((character - CHAR_SPECIAL_OFFSET) * TEXT_CHAR_HEIGHT);
     cfa:	82 2f       	mov	r24, r18
     cfc:	90 e0       	ldi	r25, 0x00	; 0
     cfe:	33 e0       	ldi	r19, 0x03	; 3
     d00:	88 0f       	add	r24, r24
     d02:	99 1f       	adc	r25, r25
     d04:	3a 95       	dec	r19
     d06:	e1 f7       	brne	.-8      	; 0xd00 <main+0x248>
			eepromPos = (int16_t)&(specialChars[charPos]);
     d08:	80 57       	subi	r24, 0x70	; 112
     d0a:	91 40       	sbci	r25, 0x01	; 1
     d0c:	02 c0       	rjmp	.+4      	; 0xd12 <main+0x25a>
static void updateTextCharStartPos(uint8_t textId) {
	for (uint8_t j = 0; j < TEXT_LINE_MAX_CHARS; ++j) {
		uint8_t character = gText[textId][j];
		int16_t eepromPos;
		if (character == ' ' || character == 0) {
			eepromPos = -1;
     d0e:	8f ef       	ldi	r24, 0xFF	; 255
     d10:	9f ef       	ldi	r25, 0xFF	; 255
		else if (character > CHAR_SPECIAL_OFFSET && character < CHAR_SPECIAL_OFFSET+CHAR_SPECIAL_LENGTH) {
			uint16_t charPos = ((character - CHAR_SPECIAL_OFFSET) * TEXT_CHAR_HEIGHT);
			eepromPos = (int16_t)&(specialChars[charPos]);
		}
#endif //TEXT_USE_SPECIAL_CHARS
		gTextCharEepromPos[j] = eepromPos;
     d12:	8d 93       	st	X+, r24
     d14:	9d 93       	st	X+, r25
	return 0;
}
#endif // TEXT_INVERTED_ENABLED

static void updateTextCharStartPos(uint8_t textId) {
	for (uint8_t j = 0; j < TEXT_LINE_MAX_CHARS; ++j) {
     d16:	04 e0       	ldi	r16, 0x04	; 4
     d18:	a5 32       	cpi	r26, 0x25	; 37
     d1a:	b0 07       	cpc	r27, r16
     d1c:	c9 f6       	brne	.-78     	; 0xcd0 <main+0x218>
     d1e:	80 e0       	ldi	r24, 0x00	; 0
     d20:	90 e0       	ldi	r25, 0x00	; 0
		  if (eepromPos != -1) {
		  eeprom_read_block((void*)gTextLastCharBuffer, (const void*)eepromPos, 8);
			  gTextLastCharEepromPos = eepromPos;
		  }
		  else {
			  memset(gTextLastCharBuffer, 0, 8);
     d22:	28 e0       	ldi	r18, 0x08	; 8
     d24:	a2 2e       	mov	r10, r18
			  gTextLastCharEepromPos = -1;
     d26:	cc 24       	eor	r12, r12
     d28:	ca 94       	dec	r12
     d2a:	4c 01       	movw	r8, r24
	}		
}

static void updateTextPixmap(uint8_t textId) {
	for (uint8_t j = 0; j < TEXT_LINE_MAX_CHARS; ++j) {
		int16_t eepromPos = gTextCharEepromPos[j];
     d2c:	d7 01       	movw	r26, r14
     d2e:	0d 91       	ld	r16, X+
     d30:	1d 91       	ld	r17, X+
     d32:	7d 01       	movw	r14, r26
		if (gTextLastCharEepromPos != eepromPos) {
     d34:	80 91 68 01 	lds	r24, 0x0168
     d38:	99 27       	eor	r25, r25
     d3a:	87 fd       	sbrc	r24, 7
     d3c:	90 95       	com	r25
     d3e:	80 17       	cp	r24, r16
     d40:	91 07       	cpc	r25, r17
     d42:	61 f0       	breq	.+24     	; 0xd5c <main+0x2a4>
		  if (eepromPos != -1) {
     d44:	bf ef       	ldi	r27, 0xFF	; 255
     d46:	0f 3f       	cpi	r16, 0xFF	; 255
     d48:	1b 07       	cpc	r17, r27
     d4a:	71 f0       	breq	.+28     	; 0xd68 <main+0x2b0>
		  eeprom_read_block((void*)gTextLastCharBuffer, (const void*)eepromPos, 8);
     d4c:	85 e2       	ldi	r24, 0x25	; 37
     d4e:	94 e0       	ldi	r25, 0x04	; 4
     d50:	b8 01       	movw	r22, r16
     d52:	48 e0       	ldi	r20, 0x08	; 8
     d54:	50 e0       	ldi	r21, 0x00	; 0
     d56:	dc d6       	rcall	.+3512   	; 0x1b10 <__eerd_block_m88pa>
			  gTextLastCharEepromPos = eepromPos;
     d58:	00 93 68 01 	sts	0x0168, r16
     d5c:	a5 e2       	ldi	r26, 0x25	; 37
     d5e:	b4 e0       	ldi	r27, 0x04	; 4
     d60:	f4 01       	movw	r30, r8
     d62:	ef 5b       	subi	r30, 0xBF	; 191
     d64:	fd 4f       	sbci	r31, 0xFD	; 253
     d66:	09 c0       	rjmp	.+18     	; 0xd7a <main+0x2c2>
		  }
		  else {
			  memset(gTextLastCharBuffer, 0, 8);
     d68:	e5 e2       	ldi	r30, 0x25	; 37
     d6a:	f4 e0       	ldi	r31, 0x04	; 4
     d6c:	0a 2d       	mov	r16, r10
     d6e:	11 92       	st	Z+, r1
     d70:	0a 95       	dec	r16
     d72:	e9 f7       	brne	.-6      	; 0xd6e <main+0x2b6>
			  gTextLastCharEepromPos = -1;
     d74:	c0 92 68 01 	sts	0x0168, r12
     d78:	f1 cf       	rjmp	.-30     	; 0xd5c <main+0x2a4>
		if (charInverted(textId, j)) {
		  gTextLastCharBuffer[i] = ~gTextLastCharBuffer[i];
		}
#endif // TEXT_INVERTED_ENABLED

      gTextPixmap[j + (i*TEXT_LINE_MAX_CHARS)] = gTextLastCharBuffer[i];
     d7a:	8d 91       	ld	r24, X+
     d7c:	80 83       	st	Z, r24
     d7e:	b1 96       	adiw	r30, 0x21	; 33
			  memset(gTextLastCharBuffer, 0, 8);
			  gTextLastCharEepromPos = -1;
		  }
		}		  

	  for (uint8_t i = 0; i < TEXT_CHAR_HEIGHT; i++) {
     d80:	14 e0       	ldi	r17, 0x04	; 4
     d82:	ad 32       	cpi	r26, 0x2D	; 45
     d84:	b1 07       	cpc	r27, r17
     d86:	c9 f7       	brne	.-14     	; 0xd7a <main+0x2c2>
     d88:	08 94       	sec
     d8a:	81 1c       	adc	r8, r1
     d8c:	91 1c       	adc	r9, r1
		gTextCharEepromPos[j] = eepromPos;
	}		
}

static void updateTextPixmap(uint8_t textId) {
	for (uint8_t j = 0; j < TEXT_LINE_MAX_CHARS; ++j) {
     d8e:	21 e2       	ldi	r18, 0x21	; 33
     d90:	82 16       	cp	r8, r18
     d92:	91 04       	cpc	r9, r1
     d94:	59 f6       	brne	.-106    	; 0xd2c <main+0x274>
     d96:	e0 ce       	rjmp	.-576    	; 0xb58 <main+0xa0>
      //DDRB |= OUT1;
      updateTextCharStartPos(gActiveTextId);
	    updateTextPixmap(gActiveTextId);
		  //DDRB &= ~OUT1;
	  }
	  else if (gUpdateScreenData == 1) {
     d98:	80 91 77 01 	lds	r24, 0x0177
     d9c:	81 30       	cpi	r24, 0x01	; 1
     d9e:	09 f0       	breq	.+2      	; 0xda2 <main+0x2ea>
     da0:	db ce       	rjmp	.-586    	; 0xb58 <main+0xa0>
#else
    if (gUpdateScreenData == 1) {
#endif //TEXTENABLED
			gUpdateScreenData = 0;
     da2:	10 92 77 01 	sts	0x0177, r1
#endif // ALARM_ENABLED
}
  

static void updateOnceEveryFrame() {
  if (gKeyPressed) {
     da6:	80 91 91 03 	lds	r24, 0x0391
     daa:	88 23       	and	r24, r24
     dac:	29 f0       	breq	.+10     	; 0xdb8 <main+0x300>
		++gKeyPressTime;
     dae:	80 91 92 03 	lds	r24, 0x0392
     db2:	8f 5f       	subi	r24, 0xFF	; 255
     db4:	80 93 92 03 	sts	0x0392, r24
	}

	if (gTimeTick == 0) {
     db8:	80 91 2d 04 	lds	r24, 0x042D
     dbc:	88 23       	and	r24, r24
     dbe:	09 f0       	breq	.+2      	; 0xdc2 <main+0x30a>
     dc0:	84 c2       	rjmp	.+1288   	; 0x12ca <main+0x812>

static void updateOnceEverySec() {
#ifndef GPS_ENABLED
  PORTD |= LED;
#else //GPS_ENABLED
  if (gGpsLastData.fix != 0) {
     dc2:	80 91 a1 03 	lds	r24, 0x03A1
     dc6:	88 23       	and	r24, r24
     dc8:	11 f0       	breq	.+4      	; 0xdce <main+0x316>
		PORTD |= LED;
     dca:	5b 9a       	sbi	0x0b, 3	; 11
     dcc:	04 c0       	rjmp	.+8      	; 0xdd6 <main+0x31e>
	}
	else {
		PORTD ^= LED;
     dce:	8b b1       	in	r24, 0x0b	; 11
     dd0:	98 e0       	ldi	r25, 0x08	; 8
     dd2:	89 27       	eor	r24, r25
     dd4:	8b b9       	out	0x0b, r24	; 11
	
#ifdef DEBUG
  //testCalcHome();
#endif // DEBUG
  
	if (gHomePosSet) {
     dd6:	80 91 d8 03 	lds	r24, 0x03D8
     dda:	88 23       	and	r24, r24
     ddc:	09 f4       	brne	.+2      	; 0xde0 <main+0x328>
     dde:	e4 c1       	rjmp	.+968    	; 0x11a8 <main+0x6f0>
	  calcHome(gGpsLastValidData.pos.latitude,
     de0:	e0 90 ba 03 	lds	r14, 0x03BA
     de4:	f0 90 bb 03 	lds	r15, 0x03BB
     de8:	00 91 bc 03 	lds	r16, 0x03BC
     dec:	10 91 bd 03 	lds	r17, 0x03BD
     df0:	20 90 be 03 	lds	r2, 0x03BE
     df4:	30 90 bf 03 	lds	r3, 0x03BF
     df8:	40 90 c0 03 	lds	r4, 0x03C0
     dfc:	50 90 c1 03 	lds	r5, 0x03C1
     e00:	a0 90 d9 03 	lds	r10, 0x03D9
     e04:	b0 90 da 03 	lds	r11, 0x03DA
     e08:	c0 90 db 03 	lds	r12, 0x03DB
     e0c:	d0 90 dc 03 	lds	r13, 0x03DC
     e10:	80 91 dd 03 	lds	r24, 0x03DD
     e14:	90 91 de 03 	lds	r25, 0x03DE
     e18:	a0 91 df 03 	lds	r26, 0x03DF
     e1c:	b0 91 e0 03 	lds	r27, 0x03E0
     e20:	89 83       	std	Y+1, r24	; 0x01
     e22:	9a 83       	std	Y+2, r25	; 0x02
     e24:	ab 83       	std	Y+3, r26	; 0x03
     e26:	bc 83       	std	Y+4, r27	; 0x04

  // considers flat earth around vehicle and reference

  // Ernani Reis, Aug 2011
  
  if (currLat == homeLat && currLong == homeLong) {
     e28:	ea 14       	cp	r14, r10
     e2a:	fb 04       	cpc	r15, r11
     e2c:	0c 05       	cpc	r16, r12
     e2e:	1d 05       	cpc	r17, r13
     e30:	91 f4       	brne	.+36     	; 0xe56 <main+0x39e>
     e32:	28 16       	cp	r2, r24
     e34:	39 06       	cpc	r3, r25
     e36:	4a 06       	cpc	r4, r26
     e38:	5b 06       	cpc	r5, r27
     e3a:	69 f4       	brne	.+26     	; 0xe56 <main+0x39e>
	  *distanceResult = 0;
     e3c:	10 92 2e 04 	sts	0x042E, r1
     e40:	10 92 2f 04 	sts	0x042F, r1
     e44:	10 92 30 04 	sts	0x0430, r1
     e48:	10 92 31 04 	sts	0x0431, r1
	  *bearingResult = 0;
     e4c:	10 92 33 04 	sts	0x0433, r1
     e50:	10 92 32 04 	sts	0x0432, r1
     e54:	a9 c1       	rjmp	.+850    	; 0x11a8 <main+0x6f0>
  int32_t deltaLat; 
  int32_t deltaLong;
  uint32_t distance;
  uint16_t bearing;
      
  c = myCos(absi32(homeLat + currLat) / 2000000); // c ~ cos(lat) -> long to fix the delta
     e56:	c6 01       	movw	r24, r12
     e58:	b5 01       	movw	r22, r10
     e5a:	6e 0d       	add	r22, r14
     e5c:	7f 1d       	adc	r23, r15
     e5e:	80 1f       	adc	r24, r16
     e60:	91 1f       	adc	r25, r17
#ifndef COMMONUTILS_H_
#define COMMONUTILS_H_

// abs seems to only support 16 bits so I had to make my own.
static uint32_t absi32(int32_t a) {
	return (a > 0) ? a : -a;
     e62:	97 ff       	sbrs	r25, 7
     e64:	07 c0       	rjmp	.+14     	; 0xe74 <main+0x3bc>
     e66:	90 95       	com	r25
     e68:	80 95       	com	r24
     e6a:	70 95       	com	r23
     e6c:	61 95       	neg	r22
     e6e:	7f 4f       	sbci	r23, 0xFF	; 255
     e70:	8f 4f       	sbci	r24, 0xFF	; 255
     e72:	9f 4f       	sbci	r25, 0xFF	; 255
     e74:	20 e8       	ldi	r18, 0x80	; 128
     e76:	34 e8       	ldi	r19, 0x84	; 132
     e78:	4e e1       	ldi	r20, 0x1E	; 30
     e7a:	50 e0       	ldi	r21, 0x00	; 0
     e7c:	e3 d5       	rcall	.+3014   	; 0x1a44 <__udivmodsi4>

static int8_t myCos(uint16_t angle) {
	return mySin(angle + 90);
     e7e:	c9 01       	movw	r24, r18
     e80:	86 5a       	subi	r24, 0xA6	; 166
     e82:	9f 4f       	sbci	r25, 0xFF	; 255
     e84:	21 d9       	rcall	.-3518   	; 0xc8 <mySin>
     e86:	8d 83       	std	Y+5, r24	; 0x05

  int32_t currLatSec100 = wgs84ToSec100(currLat); // Convert wgs84 to sec * 100
     e88:	c8 01       	movw	r24, r16
     e8a:	b7 01       	movw	r22, r14
     e8c:	39 d9       	rcall	.-3470   	; 0x100 <wgs84ToSec100>
     e8e:	6e 83       	std	Y+6, r22	; 0x06
     e90:	7f 83       	std	Y+7, r23	; 0x07
     e92:	88 87       	std	Y+8, r24	; 0x08
     e94:	99 87       	std	Y+9, r25	; 0x09
  int32_t homeLatSec100 = wgs84ToSec100(homeLat);
     e96:	c6 01       	movw	r24, r12
     e98:	b5 01       	movw	r22, r10
     e9a:	32 d9       	rcall	.-3484   	; 0x100 <wgs84ToSec100>
     e9c:	3b 01       	movw	r6, r22
     e9e:	4c 01       	movw	r8, r24
  int32_t currLongSec100 = wgs84ToSec100(currLong);
     ea0:	c2 01       	movw	r24, r4
     ea2:	b1 01       	movw	r22, r2
     ea4:	2d d9       	rcall	.-3494   	; 0x100 <wgs84ToSec100>
     ea6:	7b 01       	movw	r14, r22
     ea8:	8c 01       	movw	r16, r24
  int32_t homeLongSec100 = wgs84ToSec100(homeLong);
     eaa:	69 81       	ldd	r22, Y+1	; 0x01
     eac:	7a 81       	ldd	r23, Y+2	; 0x02
     eae:	8b 81       	ldd	r24, Y+3	; 0x03
     eb0:	9c 81       	ldd	r25, Y+4	; 0x04
     eb2:	26 d9       	rcall	.-3508   	; 0x100 <wgs84ToSec100>
     eb4:	9b 01       	movw	r18, r22
     eb6:	ac 01       	movw	r20, r24

  deltaLong = homeLongSec100 - currLongSec100; // Calculate deltas
     eb8:	2e 19       	sub	r18, r14
     eba:	3f 09       	sbc	r19, r15
     ebc:	40 0b       	sbc	r20, r16
     ebe:	51 0b       	sbc	r21, r17
  deltaLat = homeLatSec100 - currLatSec100; // delta long ainda com erro (Delta still long with error?)
     ec0:	ee 80       	ldd	r14, Y+6	; 0x06
     ec2:	ff 80       	ldd	r15, Y+7	; 0x07
     ec4:	08 85       	ldd	r16, Y+8	; 0x08
     ec6:	19 85       	ldd	r17, Y+9	; 0x09
     ec8:	6e 18       	sub	r6, r14
     eca:	7f 08       	sbc	r7, r15
     ecc:	80 0a       	sbc	r8, r16
     ece:	91 0a       	sbc	r9, r17

  deltaLong = deltaLong * c;   // corrige dla p/ lat da regio
     ed0:	fd 80       	ldd	r15, Y+5	; 0x05
     ed2:	6f 2d       	mov	r22, r15
     ed4:	77 27       	eor	r23, r23
     ed6:	67 fd       	sbrc	r22, 7
     ed8:	70 95       	com	r23
     eda:	87 2f       	mov	r24, r23
     edc:	97 2f       	mov	r25, r23
     ede:	5f d5       	rcall	.+2750   	; 0x199e <__mulsi3>
  deltaLong = deltaLong / 100; // cosine is 0-100 so divide with 100
     ee0:	24 e6       	ldi	r18, 0x64	; 100
     ee2:	30 e0       	ldi	r19, 0x00	; 0
     ee4:	40 e0       	ldi	r20, 0x00	; 0
     ee6:	50 e0       	ldi	r21, 0x00	; 0
     ee8:	cf d5       	rcall	.+2974   	; 0x1a88 <__divmodsi4>
     eea:	19 01       	movw	r2, r18
     eec:	2a 01       	movw	r4, r20

  // Make sure we don't go over uin32_t when doing sqr of deltaLong & deltaLat
  uint8_t mult = 1;
  while ((absi32(deltaLong) >= 0xFFFF) 
         || (absi32(deltaLat) >= 0xFFFF)) {
	  deltaLong /= 2;
     eee:	82 e0       	ldi	r24, 0x02	; 2
     ef0:	e8 2e       	mov	r14, r24
     ef2:	f1 2c       	mov	r15, r1
     ef4:	01 2d       	mov	r16, r1
     ef6:	11 2d       	mov	r17, r1
     ef8:	cc 24       	eor	r12, r12
     efa:	c3 94       	inc	r12
     efc:	0f c0       	rjmp	.+30     	; 0xf1c <main+0x464>
     efe:	c2 01       	movw	r24, r4
     f00:	b1 01       	movw	r22, r2
     f02:	a8 01       	movw	r20, r16
     f04:	97 01       	movw	r18, r14
     f06:	c0 d5       	rcall	.+2944   	; 0x1a88 <__divmodsi4>
     f08:	19 01       	movw	r2, r18
     f0a:	2a 01       	movw	r4, r20
	  deltaLat /= 2;
     f0c:	c4 01       	movw	r24, r8
     f0e:	b3 01       	movw	r22, r6
     f10:	a8 01       	movw	r20, r16
     f12:	97 01       	movw	r18, r14
     f14:	b9 d5       	rcall	.+2930   	; 0x1a88 <__divmodsi4>
     f16:	39 01       	movw	r6, r18
     f18:	4a 01       	movw	r8, r20
	  mult *= 2;
     f1a:	cc 0c       	add	r12, r12
     f1c:	a2 01       	movw	r20, r4
     f1e:	91 01       	movw	r18, r2
     f20:	57 fe       	sbrs	r5, 7
     f22:	07 c0       	rjmp	.+14     	; 0xf32 <main+0x47a>
     f24:	22 27       	eor	r18, r18
     f26:	33 27       	eor	r19, r19
     f28:	a9 01       	movw	r20, r18
     f2a:	22 19       	sub	r18, r2
     f2c:	33 09       	sbc	r19, r3
     f2e:	44 09       	sbc	r20, r4
     f30:	55 09       	sbc	r21, r5
  deltaLong = deltaLong * c;   // corrige dla p/ lat da regio
  deltaLong = deltaLong / 100; // cosine is 0-100 so divide with 100

  // Make sure we don't go over uin32_t when doing sqr of deltaLong & deltaLat
  uint8_t mult = 1;
  while ((absi32(deltaLong) >= 0xFFFF) 
     f32:	2f 3f       	cpi	r18, 0xFF	; 255
     f34:	6f ef       	ldi	r22, 0xFF	; 255
     f36:	36 07       	cpc	r19, r22
     f38:	60 e0       	ldi	r22, 0x00	; 0
     f3a:	46 07       	cpc	r20, r22
     f3c:	60 e0       	ldi	r22, 0x00	; 0
     f3e:	56 07       	cpc	r21, r22
     f40:	f0 f6       	brcc	.-68     	; 0xefe <main+0x446>
     f42:	d4 01       	movw	r26, r8
     f44:	c3 01       	movw	r24, r6
     f46:	97 fe       	sbrs	r9, 7
     f48:	07 c0       	rjmp	.+14     	; 0xf58 <main+0x4a0>
     f4a:	88 27       	eor	r24, r24
     f4c:	99 27       	eor	r25, r25
     f4e:	dc 01       	movw	r26, r24
     f50:	86 19       	sub	r24, r6
     f52:	97 09       	sbc	r25, r7
     f54:	a8 09       	sbc	r26, r8
     f56:	b9 09       	sbc	r27, r9
         || (absi32(deltaLat) >= 0xFFFF)) {
     f58:	8f 3f       	cpi	r24, 0xFF	; 255
     f5a:	ef ef       	ldi	r30, 0xFF	; 255
     f5c:	9e 07       	cpc	r25, r30
     f5e:	e0 e0       	ldi	r30, 0x00	; 0
     f60:	ae 07       	cpc	r26, r30
     f62:	e0 e0       	ldi	r30, 0x00	; 0
     f64:	be 07       	cpc	r27, r30
     f66:	58 f6       	brcc	.-106    	; 0xefe <main+0x446>
     f68:	c9 82       	std	Y+1, r12	; 0x01
     f6a:	2a 87       	std	Y+10, r18	; 0x0a
     f6c:	3b 87       	std	Y+11, r19	; 0x0b
     f6e:	4c 87       	std	Y+12, r20	; 0x0c
     f70:	5d 87       	std	Y+13, r21	; 0x0d
     f72:	8e 87       	std	Y+14, r24	; 0x0e
     f74:	9f 87       	std	Y+15, r25	; 0x0f
     f76:	a8 8b       	std	Y+16, r26	; 0x10
     f78:	b9 8b       	std	Y+17, r27	; 0x11
	  deltaLong /= 2;
	  deltaLat /= 2;
	  mult *= 2;
  }
  
  uint32_t a = (deltaLong * deltaLong);
     f7a:	c2 01       	movw	r24, r4
     f7c:	b1 01       	movw	r22, r2
     f7e:	a2 01       	movw	r20, r4
     f80:	91 01       	movw	r18, r2
     f82:	0d d5       	rcall	.+2586   	; 0x199e <__mulsi3>
     f84:	5b 01       	movw	r10, r22
     f86:	6c 01       	movw	r12, r24
  uint32_t b = (deltaLat * deltaLat);
     f88:	c4 01       	movw	r24, r8
     f8a:	b3 01       	movw	r22, r6
     f8c:	a4 01       	movw	r20, r8
     f8e:	93 01       	movw	r18, r6
     f90:	06 d5       	rcall	.+2572   	; 0x199e <__mulsi3>
     f92:	e1 e0       	ldi	r30, 0x01	; 1
     f94:	0f c0       	rjmp	.+30     	; 0xfb4 <main+0x4fc>

  // Make sure that the squared deltas don't go over uin32_t when adding them together.
  // This should only activate at long distances!
  uint8_t mult2 = 1;
  while ((a >> 24) + (b >> 24) > 0xFF) {
    a /= 4;
     f96:	12 e0       	ldi	r17, 0x02	; 2
     f98:	d6 94       	lsr	r13
     f9a:	c7 94       	ror	r12
     f9c:	b7 94       	ror	r11
     f9e:	a7 94       	ror	r10
     fa0:	1a 95       	dec	r17
     fa2:	d1 f7       	brne	.-12     	; 0xf98 <main+0x4e0>
    b /= 4;
     fa4:	b2 e0       	ldi	r27, 0x02	; 2
     fa6:	96 95       	lsr	r25
     fa8:	87 95       	ror	r24
     faa:	77 95       	ror	r23
     fac:	67 95       	ror	r22
     fae:	ba 95       	dec	r27
     fb0:	d1 f7       	brne	.-12     	; 0xfa6 <main+0x4ee>
    mult2 *= 2;
     fb2:	ee 0f       	add	r30, r30
  uint32_t b = (deltaLat * deltaLat);

  // Make sure that the squared deltas don't go over uin32_t when adding them together.
  // This should only activate at long distances!
  uint8_t mult2 = 1;
  while ((a >> 24) + (b >> 24) > 0xFF) {
     fb4:	e9 2e       	mov	r14, r25
     fb6:	ff 24       	eor	r15, r15
     fb8:	00 27       	eor	r16, r16
     fba:	11 27       	eor	r17, r17
     fbc:	2d 2d       	mov	r18, r13
     fbe:	33 27       	eor	r19, r19
     fc0:	44 27       	eor	r20, r20
     fc2:	55 27       	eor	r21, r21
     fc4:	e2 0e       	add	r14, r18
     fc6:	f3 1e       	adc	r15, r19
     fc8:	04 1f       	adc	r16, r20
     fca:	15 1f       	adc	r17, r21
     fcc:	2f ef       	ldi	r18, 0xFF	; 255
     fce:	e2 16       	cp	r14, r18
     fd0:	f1 04       	cpc	r15, r1
     fd2:	01 05       	cpc	r16, r1
     fd4:	11 05       	cpc	r17, r1
     fd6:	09 f0       	breq	.+2      	; 0xfda <main+0x522>
     fd8:	f0 f6       	brcc	.-68     	; 0xf96 <main+0x4de>
     fda:	ed 83       	std	Y+5, r30	; 0x05
    a /= 4;
    b /= 4;
    mult2 *= 2;
  }
  
  distance = calcSqrt(a + b);
     fdc:	86 01       	movw	r16, r12
     fde:	75 01       	movw	r14, r10
     fe0:	e6 0e       	add	r14, r22
     fe2:	f7 1e       	adc	r15, r23
     fe4:	08 1f       	adc	r16, r24
     fe6:	19 1f       	adc	r17, r25
     fe8:	ee 82       	std	Y+6, r14	; 0x06
     fea:	ff 82       	std	Y+7, r15	; 0x07
     fec:	08 87       	std	Y+8, r16	; 0x08
     fee:	19 87       	std	Y+9, r17	; 0x09
}

static uint32_t calcSqrt(uint32_t input)
{
  int32_t nv;
  int32_t v = input>>1;
     ff0:	57 01       	movw	r10, r14
     ff2:	68 01       	movw	r12, r16
     ff4:	d6 94       	lsr	r13
     ff6:	c7 94       	ror	r12
     ff8:	b7 94       	ror	r11
     ffa:	a7 94       	ror	r10
  int32_t c = 0;
  if (!v) {
     ffc:	a1 14       	cp	r10, r1
     ffe:	b1 04       	cpc	r11, r1
    1000:	c1 04       	cpc	r12, r1
    1002:	d1 04       	cpc	r13, r1
    1004:	61 f1       	breq	.+88     	; 0x105e <main+0x5a6>
    1006:	80 e0       	ldi	r24, 0x00	; 0
    1008:	90 e0       	ldi	r25, 0x00	; 0
    100a:	9b 8b       	std	Y+19, r25	; 0x13
    100c:	8a 8b       	std	Y+18, r24	; 0x12
    100e:	02 c0       	rjmp	.+4      	; 0x1014 <main+0x55c>
  do {
    nv = (v + input / v)>>1;
    if (absu32(v - nv) <= 1) {
      return nv;
	  }	  
    v = nv;
    1010:	57 01       	movw	r10, r14
    1012:	68 01       	movw	r12, r16
  int32_t c = 0;
  if (!v) {
    return input;
  }	
  do {
    nv = (v + input / v)>>1;
    1014:	6e 81       	ldd	r22, Y+6	; 0x06
    1016:	7f 81       	ldd	r23, Y+7	; 0x07
    1018:	88 85       	ldd	r24, Y+8	; 0x08
    101a:	99 85       	ldd	r25, Y+9	; 0x09
    101c:	a6 01       	movw	r20, r12
    101e:	95 01       	movw	r18, r10
    1020:	11 d5       	rcall	.+2594   	; 0x1a44 <__udivmodsi4>
    1022:	79 01       	movw	r14, r18
    1024:	8a 01       	movw	r16, r20
    1026:	ea 0c       	add	r14, r10
    1028:	fb 1c       	adc	r15, r11
    102a:	0c 1d       	adc	r16, r12
    102c:	1d 1d       	adc	r17, r13
    102e:	16 95       	lsr	r17
    1030:	07 95       	ror	r16
    1032:	f7 94       	ror	r15
    1034:	e7 94       	ror	r14
    if (absu32(v - nv) <= 1) {
    1036:	ae 18       	sub	r10, r14
    1038:	bf 08       	sbc	r11, r15
    103a:	c0 0a       	sbc	r12, r16
    103c:	d1 0a       	sbc	r13, r17
    103e:	22 e0       	ldi	r18, 0x02	; 2
    1040:	a2 16       	cp	r10, r18
    1042:	b1 04       	cpc	r11, r1
    1044:	c1 04       	cpc	r12, r1
    1046:	d1 04       	cpc	r13, r1
    1048:	70 f0       	brcs	.+28     	; 0x1066 <main+0x5ae>
    104a:	4a 89       	ldd	r20, Y+18	; 0x12
    104c:	5b 89       	ldd	r21, Y+19	; 0x13
    104e:	4f 5f       	subi	r20, 0xFF	; 255
    1050:	5f 4f       	sbci	r21, 0xFF	; 255
    1052:	5b 8b       	std	Y+19, r21	; 0x13
    1054:	4a 8b       	std	Y+18, r20	; 0x12
      return nv;
	  }	  
    v = nv;
  } while (c++ < 25);
    1056:	4a 31       	cpi	r20, 0x1A	; 26
    1058:	51 05       	cpc	r21, r1
    105a:	d1 f6       	brne	.-76     	; 0x1010 <main+0x558>
    105c:	04 c0       	rjmp	.+8      	; 0x1066 <main+0x5ae>
{
  int32_t nv;
  int32_t v = input>>1;
  int32_t c = 0;
  if (!v) {
    return input;
    105e:	ee 80       	ldd	r14, Y+6	; 0x06
    1060:	ff 80       	ldd	r15, Y+7	; 0x07
    1062:	08 85       	ldd	r16, Y+8	; 0x08
    1064:	19 85       	ldd	r17, Y+9	; 0x09
  distance *= mult2;
    1066:	6d 81       	ldd	r22, Y+5	; 0x05
    1068:	26 2f       	mov	r18, r22
    106a:	30 e0       	ldi	r19, 0x00	; 0
    106c:	40 e0       	ldi	r20, 0x00	; 0
    106e:	50 e0       	ldi	r21, 0x00	; 0
    1070:	c8 01       	movw	r24, r16
    1072:	b7 01       	movw	r22, r14
    1074:	94 d4       	rcall	.+2344   	; 0x199e <__mulsi3>
    1076:	6b 01       	movw	r12, r22
    1078:	7c 01       	movw	r14, r24

  // Only calculate bearing if bearing pointer is set.
  if (bearingResult != NULL) {
    bearing = 0;
    if (distance > 0) { // Over home -> do not compute; Home forced to 0
    107a:	61 15       	cp	r22, r1
    107c:	71 05       	cpc	r23, r1
    107e:	81 05       	cpc	r24, r1
    1080:	91 05       	cpc	r25, r1
    1082:	09 f4       	brne	.+2      	; 0x1086 <main+0x5ce>
    1084:	6a c0       	rjmp	.+212    	; 0x115a <main+0x6a2>
      if (absi32(deltaLong) >= absi32(deltaLat)) { // low angle, sine is better
    1086:	8a 85       	ldd	r24, Y+10	; 0x0a
    1088:	9b 85       	ldd	r25, Y+11	; 0x0b
    108a:	ac 85       	ldd	r26, Y+12	; 0x0c
    108c:	bd 85       	ldd	r27, Y+13	; 0x0d
    108e:	0e 85       	ldd	r16, Y+14	; 0x0e
    1090:	1f 85       	ldd	r17, Y+15	; 0x0f
    1092:	28 89       	ldd	r18, Y+16	; 0x10
    1094:	39 89       	ldd	r19, Y+17	; 0x11
    1096:	80 17       	cp	r24, r16
    1098:	91 07       	cpc	r25, r17
    109a:	a2 07       	cpc	r26, r18
    109c:	b3 07       	cpc	r27, r19
    109e:	d8 f0       	brcs	.+54     	; 0x10d6 <main+0x61e>
        c = (absi32(deltaLat) * 100) / distance; // computes sine -> dist > 0
    10a0:	c9 01       	movw	r24, r18
    10a2:	b8 01       	movw	r22, r16
    10a4:	24 e6       	ldi	r18, 0x64	; 100
    10a6:	30 e0       	ldi	r19, 0x00	; 0
    10a8:	40 e0       	ldi	r20, 0x00	; 0
    10aa:	50 e0       	ldi	r21, 0x00	; 0
    10ac:	78 d4       	rcall	.+2288   	; 0x199e <__mulsi3>
    10ae:	a7 01       	movw	r20, r14
    10b0:	96 01       	movw	r18, r12
    10b2:	c8 d4       	rcall	.+2448   	; 0x1a44 <__udivmodsi4>
    10b4:	02 2f       	mov	r16, r18
  distance = calcSqrt(a + b);
  distance *= mult2;

  // Only calculate bearing if bearing pointer is set.
  if (bearingResult != NULL) {
    bearing = 0;
    10b6:	20 e0       	ldi	r18, 0x00	; 0
    10b8:	30 e0       	ldi	r19, 0x00	; 0
    10ba:	59 01       	movw	r10, r18
    10bc:	03 c0       	rjmp	.+6      	; 0x10c4 <main+0x60c>
    if (distance > 0) { // Over home -> do not compute; Home forced to 0
      if (absi32(deltaLong) >= absi32(deltaLat)) { // low angle, sine is better
        c = (absi32(deltaLat) * 100) / distance; // computes sine -> dist > 0
        while((mySin(bearing) <= c) && (bearing < 90)) {
          ++bearing;
    10be:	08 94       	sec
    10c0:	a1 1c       	adc	r10, r1
    10c2:	b1 1c       	adc	r11, r1
  if (bearingResult != NULL) {
    bearing = 0;
    if (distance > 0) { // Over home -> do not compute; Home forced to 0
      if (absi32(deltaLong) >= absi32(deltaLat)) { // low angle, sine is better
        c = (absi32(deltaLat) * 100) / distance; // computes sine -> dist > 0
        while((mySin(bearing) <= c) && (bearing < 90)) {
    10c4:	c5 01       	movw	r24, r10
    10c6:	00 d8       	rcall	.-4096   	; 0xc8 <mySin>
    10c8:	08 17       	cp	r16, r24
    10ca:	1c f1       	brlt	.+70     	; 0x1112 <main+0x65a>
    10cc:	1a e5       	ldi	r17, 0x5A	; 90
    10ce:	a1 16       	cp	r10, r17
    10d0:	b1 04       	cpc	r11, r1
    10d2:	a9 f7       	brne	.-22     	; 0x10be <main+0x606>
    10d4:	1e c0       	rjmp	.+60     	; 0x1112 <main+0x65a>
          ++bearing;
        }
      } 
	    else { // high angle, cosine is better
        c = (absi32(deltaLong) * 100) / distance; // Computes cosine
    10d6:	6a 85       	ldd	r22, Y+10	; 0x0a
    10d8:	7b 85       	ldd	r23, Y+11	; 0x0b
    10da:	8c 85       	ldd	r24, Y+12	; 0x0c
    10dc:	9d 85       	ldd	r25, Y+13	; 0x0d
    10de:	24 e6       	ldi	r18, 0x64	; 100
    10e0:	30 e0       	ldi	r19, 0x00	; 0
    10e2:	40 e0       	ldi	r20, 0x00	; 0
    10e4:	50 e0       	ldi	r21, 0x00	; 0
    10e6:	5b d4       	rcall	.+2230   	; 0x199e <__mulsi3>
    10e8:	a7 01       	movw	r20, r14
    10ea:	96 01       	movw	r18, r12
    10ec:	ab d4       	rcall	.+2390   	; 0x1a44 <__udivmodsi4>
    10ee:	a2 2e       	mov	r10, r18
  distance = calcSqrt(a + b);
  distance *= mult2;

  // Only calculate bearing if bearing pointer is set.
  if (bearingResult != NULL) {
    bearing = 0;
    10f0:	00 e0       	ldi	r16, 0x00	; 0
    10f2:	10 e0       	ldi	r17, 0x00	; 0
    10f4:	02 c0       	rjmp	.+4      	; 0x10fa <main+0x642>
        }
      } 
	    else { // high angle, cosine is better
        c = (absi32(deltaLong) * 100) / distance; // Computes cosine
        while((mySin(bearing) <= c) && (bearing < 90)) {
          ++bearing;
    10f6:	0f 5f       	subi	r16, 0xFF	; 255
    10f8:	1f 4f       	sbci	r17, 0xFF	; 255
          ++bearing;
        }
      } 
	    else { // high angle, cosine is better
        c = (absi32(deltaLong) * 100) / distance; // Computes cosine
        while((mySin(bearing) <= c) && (bearing < 90)) {
    10fa:	c8 01       	movw	r24, r16
    10fc:	e5 d7       	rcall	.+4042   	; 0x20c8 <__data_load_end+0x522>
    10fe:	a8 16       	cp	r10, r24
    1100:	1c f0       	brlt	.+6      	; 0x1108 <main+0x650>
    1102:	0a 35       	cpi	r16, 0x5A	; 90
    1104:	11 05       	cpc	r17, r1
    1106:	b9 f7       	brne	.-18     	; 0x10f6 <main+0x63e>
          ++bearing;
        }
        bearing = 90 - bearing;
    1108:	2a e5       	ldi	r18, 0x5A	; 90
    110a:	30 e0       	ldi	r19, 0x00	; 0
    110c:	20 1b       	sub	r18, r16
    110e:	31 0b       	sbc	r19, r17
    1110:	01 c0       	rjmp	.+2      	; 0x1114 <main+0x65c>
    1112:	95 01       	movw	r18, r10
      }
      if (deltaLat == 0) {
    1114:	61 14       	cp	r6, r1
    1116:	71 04       	cpc	r7, r1
    1118:	81 04       	cpc	r8, r1
    111a:	91 04       	cpc	r9, r1
    111c:	29 f4       	brne	.+10     	; 0x1128 <main+0x670>
        if (deltaLong >= 0) { // Home = East
    111e:	57 fc       	sbrc	r5, 7
    1120:	1f c0       	rjmp	.+62     	; 0x1160 <main+0x6a8>
          bearing = 90; 
    1122:	8a e5       	ldi	r24, 0x5A	; 90
    1124:	90 e0       	ldi	r25, 0x00	; 0
    1126:	1e c0       	rjmp	.+60     	; 0x1164 <main+0x6ac>
        } 
	      else { // Home = West
          bearing = 270;
        }
      } 
      else if (deltaLat > 0) {
    1128:	16 14       	cp	r1, r6
    112a:	17 04       	cpc	r1, r7
    112c:	18 04       	cpc	r1, r8
    112e:	19 04       	cpc	r1, r9
    1130:	4c f4       	brge	.+18     	; 0x1144 <main+0x68c>
        if (deltaLong >= 0) { // NE quadrant
    1132:	57 fc       	sbrc	r5, 7
    1134:	03 c0       	rjmp	.+6      	; 0x113c <main+0x684>
          bearing = 90 - bearing;
    1136:	8a e5       	ldi	r24, 0x5A	; 90
    1138:	90 e0       	ldi	r25, 0x00	; 0
    113a:	0c c0       	rjmp	.+24     	; 0x1154 <main+0x69c>
        } 
	      else { // NW quadrant
          bearing = 270 + bearing;
    113c:	c9 01       	movw	r24, r18
    113e:	82 5f       	subi	r24, 0xF2	; 242
    1140:	9e 4f       	sbci	r25, 0xFE	; 254
    1142:	10 c0       	rjmp	.+32     	; 0x1164 <main+0x6ac>
        }
      } 
	    else {
        if (deltaLong >= 0) { // SE quadrant
    1144:	57 fc       	sbrc	r5, 7
    1146:	04 c0       	rjmp	.+8      	; 0x1150 <main+0x698>
          bearing = 90 + bearing;
    1148:	c9 01       	movw	r24, r18
    114a:	86 5a       	subi	r24, 0xA6	; 166
    114c:	9f 4f       	sbci	r25, 0xFF	; 255
    114e:	0a c0       	rjmp	.+20     	; 0x1164 <main+0x6ac>
        } 
	      else { // SW quadrant
          bearing = 270 - bearing;
    1150:	8e e0       	ldi	r24, 0x0E	; 14
    1152:	91 e0       	ldi	r25, 0x01	; 1
    1154:	82 1b       	sub	r24, r18
    1156:	93 0b       	sbc	r25, r19
    1158:	05 c0       	rjmp	.+10     	; 0x1164 <main+0x6ac>
  distance = calcSqrt(a + b);
  distance *= mult2;

  // Only calculate bearing if bearing pointer is set.
  if (bearingResult != NULL) {
    bearing = 0;
    115a:	80 e0       	ldi	r24, 0x00	; 0
    115c:	90 e0       	ldi	r25, 0x00	; 0
    115e:	02 c0       	rjmp	.+4      	; 0x1164 <main+0x6ac>
      if (deltaLat == 0) {
        if (deltaLong >= 0) { // Home = East
          bearing = 90; 
        } 
	      else { // Home = West
          bearing = 270;
    1160:	8e e0       	ldi	r24, 0x0E	; 14
    1162:	91 e0       	ldi	r25, 0x01	; 1
	      else { // SW quadrant
          bearing = 270 - bearing;
        }
      }
    }
    *bearingResult = bearing;
    1164:	90 93 33 04 	sts	0x0433, r25
    1168:	80 93 32 04 	sts	0x0432, r24
	}
  distance = distance * 309; // ate aqui em segundo * 100
    116c:	c7 01       	movw	r24, r14
    116e:	b6 01       	movw	r22, r12
    1170:	25 e3       	ldi	r18, 0x35	; 53
    1172:	31 e0       	ldi	r19, 0x01	; 1
    1174:	40 e0       	ldi	r20, 0x00	; 0
    1176:	50 e0       	ldi	r21, 0x00	; 0
    1178:	12 d4       	rcall	.+2084   	; 0x199e <__mulsi3>
  distance = distance / 1000; // metros, agora
    117a:	28 ee       	ldi	r18, 0xE8	; 232
    117c:	33 e0       	ldi	r19, 0x03	; 3
    117e:	40 e0       	ldi	r20, 0x00	; 0
    1180:	50 e0       	ldi	r21, 0x00	; 0
    1182:	60 d4       	rcall	.+2240   	; 0x1a44 <__udivmodsi4>
    1184:	79 01       	movw	r14, r18
    1186:	8a 01       	movw	r16, r20
  distance *= mult;
    1188:	69 81       	ldd	r22, Y+1	; 0x01
    118a:	26 2f       	mov	r18, r22
    118c:	30 e0       	ldi	r19, 0x00	; 0
    118e:	40 e0       	ldi	r20, 0x00	; 0
    1190:	50 e0       	ldi	r21, 0x00	; 0
    1192:	c8 01       	movw	r24, r16
    1194:	b7 01       	movw	r22, r14
    1196:	03 d4       	rcall	.+2054   	; 0x199e <__mulsi3>
#ifdef IMPERIAL_SYSTEM  
  distance *= 3281;
	distance /= 1000;
#endif //IMPERIAL_SYSTEM
  *distanceResult = distance;
    1198:	60 93 2e 04 	sts	0x042E, r22
    119c:	70 93 2f 04 	sts	0x042F, r23
    11a0:	80 93 30 04 	sts	0x0430, r24
    11a4:	90 93 31 04 	sts	0x0431, r25
    11a8:	34 e3       	ldi	r19, 0x34	; 52
    11aa:	a3 2e       	mov	r10, r19
    11ac:	34 e0       	ldi	r19, 0x04	; 4
    11ae:	b3 2e       	mov	r11, r19
    11b0:	29 e6       	ldi	r18, 0x69	; 105
    11b2:	62 2e       	mov	r6, r18
    11b4:	21 e0       	ldi	r18, 0x01	; 1
    11b6:	72 2e       	mov	r7, r18
    11b8:	9d e6       	ldi	r25, 0x6D	; 109
    11ba:	29 2e       	mov	r2, r25
    11bc:	91 e0       	ldi	r25, 0x01	; 1
    11be:	39 2e       	mov	r3, r25
    11c0:	8c e3       	ldi	r24, 0x3C	; 60
    11c2:	94 e0       	ldi	r25, 0x04	; 4
      if (deltaLat == 0) {
        if (deltaLong >= 0) { // Home = East
          bearing = 90; 
        } 
	      else { // Home = West
          bearing = 270;
    11c4:	cc 24       	eor	r12, r12
	  ADCSRA &= ~(1<<ADEN) & ~(1<<ADATE); // ADC disabled & ADC auto trigger disabled
	  temp = ADCW;
#ifdef ADC_ENABLE_RAW	  
    gAnalogInputsRaw[i] = temp;
#endif
	  temp = (temp * 5 * 62) / 10;
    11c6:	4c 01       	movw	r8, r24
static void measureAnalog() {
  uint32_t temp = 0;
	uint8_t adcLow = 0; 
  uint8_t adcHigh = 0;
  for (uint8_t i = 0; i < ANALOG_IN_NUMBER; ++i) {
	  ADMUX &= 0xF0; // Clear mux
    11c8:	80 91 7c 00 	lds	r24, 0x007C
    11cc:	80 7f       	andi	r24, 0xF0	; 240
    11ce:	80 93 7c 00 	sts	0x007C, r24
    ADMUX |= (i + ADC_OFFSET);	 //Setup adc mux
    11d2:	80 91 7c 00 	lds	r24, 0x007C
    11d6:	8c 29       	or	r24, r12
    11d8:	80 93 7c 00 	sts	0x007C, r24
	  ADCSRA |= (1<<ADEN) | (1<<ADATE); // ADC enable & ADC auto trigger enable
    11dc:	80 91 7a 00 	lds	r24, 0x007A
    11e0:	80 6a       	ori	r24, 0xA0	; 160
    11e2:	80 93 7a 00 	sts	0x007A, r24
	  ADCSRA |= (1<<ADSC); // Start measure
    11e6:	80 91 7a 00 	lds	r24, 0x007A
    11ea:	80 64       	ori	r24, 0x40	; 64
    11ec:	80 93 7a 00 	sts	0x007A, r24
	  while ((ADCSRA & (1<<ADIF)) == 0); // Wait to finish
    11f0:	80 91 7a 00 	lds	r24, 0x007A
    11f4:	84 ff       	sbrs	r24, 4
    11f6:	fc cf       	rjmp	.-8      	; 0x11f0 <main+0x738>
	  ADCSRA |= (1<<ADIF); // Clear ADC interrupt flag with a 1
    11f8:	80 91 7a 00 	lds	r24, 0x007A
    11fc:	80 61       	ori	r24, 0x10	; 16
    11fe:	80 93 7a 00 	sts	0x007A, r24
	  ADCSRA &= ~(1<<ADEN) & ~(1<<ADATE); // ADC disabled & ADC auto trigger disabled
    1202:	80 91 7a 00 	lds	r24, 0x007A
    1206:	8f 75       	andi	r24, 0x5F	; 95
    1208:	80 93 7a 00 	sts	0x007A, r24
	  temp = ADCW;
    120c:	60 91 78 00 	lds	r22, 0x0078
    1210:	70 91 79 00 	lds	r23, 0x0079
#ifdef ADC_ENABLE_RAW	  
    gAnalogInputsRaw[i] = temp;
    1214:	d5 01       	movw	r26, r10
    1216:	6d 93       	st	X+, r22
    1218:	7d 93       	st	X+, r23
    121a:	5d 01       	movw	r10, r26
	  ADCSRA |= (1<<ADEN) | (1<<ADATE); // ADC enable & ADC auto trigger enable
	  ADCSRA |= (1<<ADSC); // Start measure
	  while ((ADCSRA & (1<<ADIF)) == 0); // Wait to finish
	  ADCSRA |= (1<<ADIF); // Clear ADC interrupt flag with a 1
	  ADCSRA &= ~(1<<ADEN) & ~(1<<ADATE); // ADC disabled & ADC auto trigger disabled
	  temp = ADCW;
    121c:	80 e0       	ldi	r24, 0x00	; 0
    121e:	90 e0       	ldi	r25, 0x00	; 0
#ifdef ADC_ENABLE_RAW	  
    gAnalogInputsRaw[i] = temp;
#endif
	  temp = (temp * 5 * 62) / 10;
    1220:	26 e3       	ldi	r18, 0x36	; 54
    1222:	31 e0       	ldi	r19, 0x01	; 1
    1224:	40 e0       	ldi	r20, 0x00	; 0
    1226:	50 e0       	ldi	r21, 0x00	; 0
    1228:	ba d3       	rcall	.+1908   	; 0x199e <__mulsi3>
    122a:	2a e0       	ldi	r18, 0x0A	; 10
    122c:	30 e0       	ldi	r19, 0x00	; 0
    122e:	40 e0       	ldi	r20, 0x00	; 0
    1230:	50 e0       	ldi	r21, 0x00	; 0
    1232:	08 d4       	rcall	.+2064   	; 0x1a44 <__udivmodsi4>
    1234:	79 01       	movw	r14, r18
    1236:	8a 01       	movw	r16, r20
	  temp *= gAnalogMult[i];
    1238:	f3 01       	movw	r30, r6
    123a:	21 91       	ld	r18, Z+
    123c:	3f 01       	movw	r6, r30
    123e:	30 e0       	ldi	r19, 0x00	; 0
    1240:	40 e0       	ldi	r20, 0x00	; 0
    1242:	50 e0       	ldi	r21, 0x00	; 0
    1244:	c8 01       	movw	r24, r16
    1246:	b7 01       	movw	r22, r14
    1248:	aa d3       	rcall	.+1876   	; 0x199e <__mulsi3>
	  temp /= gAnalogDiv[i];
    124a:	d1 01       	movw	r26, r2
    124c:	2d 91       	ld	r18, X+
    124e:	1d 01       	movw	r2, r26
    1250:	30 e0       	ldi	r19, 0x00	; 0
    1252:	40 e0       	ldi	r20, 0x00	; 0
    1254:	50 e0       	ldi	r21, 0x00	; 0
    1256:	f6 d3       	rcall	.+2028   	; 0x1a44 <__udivmodsi4>
	  adcHigh = temp / 1024;
    1258:	79 01       	movw	r14, r18
    125a:	8a 01       	movw	r16, r20
    125c:	8a e0       	ldi	r24, 0x0A	; 10
    125e:	16 95       	lsr	r17
    1260:	07 95       	ror	r16
    1262:	f7 94       	ror	r15
    1264:	e7 94       	ror	r14
    1266:	8a 95       	dec	r24
    1268:	d1 f7       	brne	.-12     	; 0x125e <main+0x7a6>
    126a:	e9 82       	std	Y+1, r14	; 0x01
    126c:	fa 82       	std	Y+2, r15	; 0x02
    126e:	0b 83       	std	Y+3, r16	; 0x03
    1270:	1c 83       	std	Y+4, r17	; 0x04
	  temp -= (uint16_t)(adcHigh) * 1024;
    1272:	8e 2d       	mov	r24, r14
    1274:	90 e0       	ldi	r25, 0x00	; 0
    1276:	98 2f       	mov	r25, r24
    1278:	88 27       	eor	r24, r24
    127a:	99 0f       	add	r25, r25
    127c:	99 0f       	add	r25, r25
    127e:	a0 e0       	ldi	r26, 0x00	; 0
    1280:	b0 e0       	ldi	r27, 0x00	; 0
    1282:	79 01       	movw	r14, r18
    1284:	8a 01       	movw	r16, r20
    1286:	e8 1a       	sub	r14, r24
    1288:	f9 0a       	sbc	r15, r25
    128a:	0a 0b       	sbc	r16, r26
    128c:	1b 0b       	sbc	r17, r27
    128e:	c8 01       	movw	r24, r16
    1290:	b7 01       	movw	r22, r14
	  adcLow = (temp * 100) / 1024;
    1292:	24 e6       	ldi	r18, 0x64	; 100
    1294:	30 e0       	ldi	r19, 0x00	; 0
    1296:	40 e0       	ldi	r20, 0x00	; 0
    1298:	50 e0       	ldi	r21, 0x00	; 0
    129a:	81 d3       	rcall	.+1794   	; 0x199e <__mulsi3>
    129c:	1a e0       	ldi	r17, 0x0A	; 10
    129e:	96 95       	lsr	r25
    12a0:	87 95       	ror	r24
    12a2:	77 95       	ror	r23
    12a4:	67 95       	ror	r22
    12a6:	1a 95       	dec	r17
    12a8:	d1 f7       	brne	.-12     	; 0x129e <main+0x7e6>
    12aa:	d4 01       	movw	r26, r8
    12ac:	6c 93       	st	X, r22
	
	  gAnalogInputs[i].low = adcLow;
    gAnalogInputs[i].high = adcHigh;
    12ae:	e9 81       	ldd	r30, Y+1	; 0x01
    12b0:	11 96       	adiw	r26, 0x01	; 1
    12b2:	ec 93       	st	X, r30
    12b4:	11 97       	sbiw	r26, 0x01	; 1

static void measureAnalog() {
  uint32_t temp = 0;
	uint8_t adcLow = 0; 
  uint8_t adcHigh = 0;
  for (uint8_t i = 0; i < ANALOG_IN_NUMBER; ++i) {
    12b6:	c3 94       	inc	r12
    12b8:	b2 e0       	ldi	r27, 0x02	; 2
    12ba:	eb 2e       	mov	r14, r27
    12bc:	f1 2c       	mov	r15, r1
    12be:	8e 0c       	add	r8, r14
    12c0:	9f 1c       	adc	r9, r15
    12c2:	0c 2d       	mov	r16, r12
    12c4:	04 30       	cpi	r16, 0x04	; 4
    12c6:	09 f0       	breq	.+2      	; 0x12ca <main+0x812>
    12c8:	7f cf       	rjmp	.-258    	; 0x11c8 <main+0x710>
static volatile uint8_t gBlink1Hz = 0;

#ifdef TIME_ENABLED

static void updateTime() {
	++gTimeTick;
    12ca:	80 91 2d 04 	lds	r24, 0x042D
    12ce:	8f 5f       	subi	r24, 0xFF	; 255
    12d0:	80 93 2d 04 	sts	0x042D, r24
	if (gTimeTick >= TIME_FRAMES_PER_SEC) {
    12d4:	80 91 2d 04 	lds	r24, 0x042D
    12d8:	82 33       	cpi	r24, 0x32	; 50
    12da:	78 f0       	brcs	.+30     	; 0x12fa <main+0x842>
		gTimeTick = 0;
    12dc:	10 92 2d 04 	sts	0x042D, r1
		gTime.sec++;
    12e0:	80 91 d4 03 	lds	r24, 0x03D4
    12e4:	8f 5f       	subi	r24, 0xFF	; 255
    12e6:	80 93 d4 03 	sts	0x03D4, r24
		gBlink1Hz = (gBlink1Hz+1)%2;
    12ea:	80 91 44 04 	lds	r24, 0x0444
    12ee:	90 e0       	ldi	r25, 0x00	; 0
    12f0:	01 96       	adiw	r24, 0x01	; 1
    12f2:	81 70       	andi	r24, 0x01	; 1
    12f4:	90 70       	andi	r25, 0x00	; 0
    12f6:	80 93 44 04 	sts	0x0444, r24
	}
	if (gTime.sec >= 60) {
    12fa:	80 91 d4 03 	lds	r24, 0x03D4
    12fe:	8c 33       	cpi	r24, 0x3C	; 60
    1300:	38 f0       	brcs	.+14     	; 0x1310 <main+0x858>
		gTime.sec = 0;
    1302:	10 92 d4 03 	sts	0x03D4, r1
		gTime.min++;
    1306:	80 91 d5 03 	lds	r24, 0x03D5
    130a:	8f 5f       	subi	r24, 0xFF	; 255
    130c:	80 93 d5 03 	sts	0x03D5, r24
	}
	if (gTime.min >= 60) {
    1310:	80 91 d5 03 	lds	r24, 0x03D5
    1314:	8c 33       	cpi	r24, 0x3C	; 60
    1316:	10 f0       	brcs	.+4      	; 0x131c <main+0x864>
		gTime.min = 0;
    1318:	10 92 d5 03 	sts	0x03D5, r1
    131c:	ac e9       	ldi	r26, 0x9C	; 156
    131e:	ea 2e       	mov	r14, r26
    1320:	a1 e0       	ldi	r26, 0x01	; 1
    1322:	fa 2e       	mov	r15, r26
#endif //GRAPICSENABLED
}

void main(void) __attribute__ ((noreturn)); // Main never returns, saves a few bytes

void main(void) {
    1324:	80 e0       	ldi	r24, 0x00	; 0
    1326:	90 e0       	ldi	r25, 0x00	; 0
    gAnalogInputs[i].high = adcHigh;
  }    
}

static uint8_t calcGenericLevel(uint8_t adcInput, uint16_t minLevel, uint16_t maxLevel) {
	uint16_t level = ((gAnalogInputs[adcInput].high * 100) + gAnalogInputs[adcInput].low);
    1328:	f4 e6       	ldi	r31, 0x64	; 100
    132a:	2f 2e       	mov	r2, r31
	if (level > maxLevel) {
		level = 100;
    132c:	e4 e6       	ldi	r30, 0x64	; 100
    132e:	ae 2e       	mov	r10, r30
    1330:	b1 2c       	mov	r11, r1
	}		
	else if (level > minLevel) {
		level -= minLevel;
		level *= 100;
		level /= maxLevel - minLevel;
    1332:	7c e7       	ldi	r23, 0x7C	; 124
    1334:	67 2e       	mov	r6, r23
    1336:	71 e0       	ldi	r23, 0x01	; 1
    1338:	77 2e       	mov	r7, r23
	if (gTime.min < 10) {
		str[pos++] = '0';
	}	
	pos = printNumberWithUnit(str, pos, gTime.min, ":");
	if (gTime.sec < 10) {
		str[pos++] = '0';
    133a:	60 e3       	ldi	r22, 0x30	; 48
    133c:	c6 2e       	mov	r12, r22
    133e:	4c 01       	movw	r8, r24
    1340:	41 c1       	rjmp	.+642    	; 0x15c4 <main+0xb0c>
#endif // TEXT_INVERTED_ENABLED

// Functions
static void clearText(uint8_t textId) {
	for (uint8_t j = 0; j < TEXT_LINE_MAX_CHARS; ++j) {
		gText[textId][j] = 0;
    1342:	11 92       	st	Z+, r1
static uint8_t gTextInverted[TEXT_LINES][TEXT_LINE_MAX_CHARS/8];
#endif // TEXT_INVERTED_ENABLED

// Functions
static void clearText(uint8_t textId) {
	for (uint8_t j = 0; j < TEXT_LINE_MAX_CHARS; ++j) {
    1344:	ee 15       	cp	r30, r14
    1346:	ff 05       	cpc	r31, r15
    1348:	e1 f7       	brne	.-8      	; 0x1342 <main+0x88a>
    134a:	88 2d       	mov	r24, r8
#ifdef TEXT_ENABLED
static void updateText(uint8_t textId) {
  //testPrintDebugInfo();
  uint8_t pos = 0;

	if (textId == 0) {
    134c:	88 20       	and	r8, r8
    134e:	c1 f5       	brne	.+112    	; 0x13c0 <main+0x908>
		pos = printText(gText[textId], 0, "\1521");
    1350:	8b e7       	ldi	r24, 0x7B	; 123
    1352:	91 e0       	ldi	r25, 0x01	; 1
    1354:	60 e0       	ldi	r22, 0x00	; 0
    1356:	44 e2       	ldi	r20, 0x24	; 36
    1358:	51 e0       	ldi	r21, 0x01	; 1
    135a:	2e d8       	rcall	.-4004   	; 0x3b8 <printText>
#if ANALOG_IN_NUMBER == 2
    pos = printText(gText[textId], 7, "\151");
#else // ANALOG_IN_NUMBER > 2
    pos = printText(gText[textId], 7, "\1522");
    135c:	8b e7       	ldi	r24, 0x7B	; 123
    135e:	91 e0       	ldi	r25, 0x01	; 1
    1360:	67 e0       	ldi	r22, 0x07	; 7
    1362:	47 e2       	ldi	r20, 0x27	; 39
    1364:	51 e0       	ldi	r21, 0x01	; 1
    1366:	28 d8       	rcall	.-4016   	; 0x3b8 <printText>
	  pos = printText(gText[textId], 14, "\151");    
    1368:	8b e7       	ldi	r24, 0x7B	; 123
    136a:	91 e0       	ldi	r25, 0x01	; 1
    136c:	6e e0       	ldi	r22, 0x0E	; 14
    136e:	4a e2       	ldi	r20, 0x2A	; 42
    1370:	51 e0       	ldi	r21, 0x01	; 1
    1372:	22 d8       	rcall	.-4028   	; 0x3b8 <printText>
	if (gTime.hour < 10) {
		str[pos++] = '0';
	}
	pos = printNumberWithUnit(str, pos, gTime.hour, ":");
#endif //TIME_HOUR_ENABLED
	if (gTime.min < 10) {
    1374:	80 91 d5 03 	lds	r24, 0x03D5
    1378:	8a 30       	cpi	r24, 0x0A	; 10
    137a:	20 f4       	brcc	.+8      	; 0x1384 <main+0x8cc>
		str[pos++] = '0';
    137c:	c0 92 96 01 	sts	0x0196, r12
    1380:	6c e1       	ldi	r22, 0x1C	; 28
    1382:	01 c0       	rjmp	.+2      	; 0x1386 <main+0x8ce>
	if (gTime.hour < 10) {
		str[pos++] = '0';
	}
	pos = printNumberWithUnit(str, pos, gTime.hour, ":");
#endif //TIME_HOUR_ENABLED
	if (gTime.min < 10) {
    1384:	6b e1       	ldi	r22, 0x1B	; 27
		str[pos++] = '0';
	}	
	pos = printNumberWithUnit(str, pos, gTime.min, ":");
    1386:	20 91 d5 03 	lds	r18, 0x03D5
    138a:	30 e0       	ldi	r19, 0x00	; 0
    138c:	40 e0       	ldi	r20, 0x00	; 0
    138e:	50 e0       	ldi	r21, 0x00	; 0
    1390:	8b e7       	ldi	r24, 0x7B	; 123
    1392:	91 e0       	ldi	r25, 0x01	; 1
    1394:	0c e2       	ldi	r16, 0x2C	; 44
    1396:	11 e0       	ldi	r17, 0x01	; 1
    1398:	2f d8       	rcall	.-4002   	; 0x3f8 <printNumberWithUnit>
    139a:	68 2f       	mov	r22, r24
	if (gTime.sec < 10) {
    139c:	80 91 d4 03 	lds	r24, 0x03D4
    13a0:	8a 30       	cpi	r24, 0x0A	; 10
    13a2:	30 f4       	brcc	.+12     	; 0x13b0 <main+0x8f8>
		str[pos++] = '0';
    13a4:	e6 2f       	mov	r30, r22
    13a6:	f0 e0       	ldi	r31, 0x00	; 0
    13a8:	e5 58       	subi	r30, 0x85	; 133
    13aa:	fe 4f       	sbci	r31, 0xFE	; 254
    13ac:	c0 82       	st	Z, r12
    13ae:	6f 5f       	subi	r22, 0xFF	; 255
	}	
	return printNumber(str, pos, gTime.sec);
    13b0:	20 91 d4 03 	lds	r18, 0x03D4
    13b4:	30 e0       	ldi	r19, 0x00	; 0
    13b6:	40 e0       	ldi	r20, 0x00	; 0
    13b8:	50 e0       	ldi	r21, 0x00	; 0
    13ba:	8b e7       	ldi	r24, 0x7B	; 123
    13bc:	91 e0       	ldi	r25, 0x01	; 1
    13be:	c8 c0       	rjmp	.+400    	; 0x1550 <main+0xa98>
	  pos = printTime(gText[textId], TEXT_LINE_MAX_CHARS-9);
#else
    pos = printTime(gText[textId], TEXT_LINE_MAX_CHARS-6);
#endif //TIME_HOUR_ENABLED
  }
  else if (textId == 1) {
    13c0:	81 30       	cpi	r24, 0x01	; 1
    13c2:	f1 f5       	brne	.+124    	; 0x1440 <main+0x988>
	  printText(gText[textId], TEXT_LINE_MAX_CHARS-1-strlen(TEXT_CALLSIGN), TEXT_CALLSIGN);
    13c4:	8c e9       	ldi	r24, 0x9C	; 156
    13c6:	91 e0       	ldi	r25, 0x01	; 1
    13c8:	60 e2       	ldi	r22, 0x20	; 32
    13ca:	4e e2       	ldi	r20, 0x2E	; 46
    13cc:	51 e0       	ldi	r21, 0x01	; 1
    13ce:	f4 d7       	rcall	.+4072   	; 0x23b8 <__data_load_end+0x812>
	  if (!gAlarmBatt1 || gBlink1Hz) {
	    pos = printAdc(gText[textId], 0, ANALOG_IN_1);
    13d0:	8c e9       	ldi	r24, 0x9C	; 156
    13d2:	91 e0       	ldi	r25, 0x01	; 1
    13d4:	60 e0       	ldi	r22, 0x00	; 0
    13d6:	40 e0       	ldi	r20, 0x00	; 0
    13d8:	1e d8       	rcall	.-4036   	; 0x416 <printAdc>
    if (!gAlarmRssi || gBlink1Hz) {
      pos = printRssiLevel(gText[textId], 7, ANALOG_IN_2);
	  }	  
#else // ANALOG_IN_NUMBER > 2
    if (!gAlarmBatt2 || gBlink1Hz) {
      pos = printAdc(gText[textId], 7, ANALOG_IN_2);
    13da:	8c e9       	ldi	r24, 0x9C	; 156
    13dc:	91 e0       	ldi	r25, 0x01	; 1
    13de:	67 e0       	ldi	r22, 0x07	; 7
    13e0:	41 e0       	ldi	r20, 0x01	; 1
    13e2:	19 d8       	rcall	.-4046   	; 0x416 <printAdc>
    gAnalogInputs[i].high = adcHigh;
  }    
}

static uint8_t calcGenericLevel(uint8_t adcInput, uint16_t minLevel, uint16_t maxLevel) {
	uint16_t level = ((gAnalogInputs[adcInput].high * 100) + gAnalogInputs[adcInput].low);
    13e4:	80 91 41 04 	lds	r24, 0x0441
    13e8:	12 2d       	mov	r17, r2
    13ea:	81 9f       	mul	r24, r17
    13ec:	c0 01       	movw	r24, r0
    13ee:	11 24       	eor	r1, r1
    13f0:	20 91 40 04 	lds	r18, 0x0440
    13f4:	82 0f       	add	r24, r18
    13f6:	91 1d       	adc	r25, r1
	if (level > maxLevel) {
    13f8:	21 e0       	ldi	r18, 0x01	; 1
    13fa:	85 3f       	cpi	r24, 0xF5	; 245
    13fc:	92 07       	cpc	r25, r18
    13fe:	80 f4       	brcc	.+32     	; 0x1420 <main+0x968>
		level = 100;
	}		
	else if (level > minLevel) {
    1400:	89 37       	cpi	r24, 0x79	; 121
    1402:	91 05       	cpc	r25, r1
    1404:	80 f0       	brcs	.+32     	; 0x1426 <main+0x96e>
		level -= minLevel;
    1406:	9c 01       	movw	r18, r24
    1408:	28 57       	subi	r18, 0x78	; 120
    140a:	30 40       	sbci	r19, 0x00	; 0
		level *= 100;
    140c:	2a 9d       	mul	r18, r10
    140e:	c0 01       	movw	r24, r0
    1410:	2b 9d       	mul	r18, r11
    1412:	90 0d       	add	r25, r0
    1414:	3a 9d       	mul	r19, r10
    1416:	90 0d       	add	r25, r0
    1418:	11 24       	eor	r1, r1
		level /= maxLevel - minLevel;
    141a:	b3 01       	movw	r22, r6
    141c:	ec d2       	rcall	.+1496   	; 0x19f6 <__udivmodhi4>
    141e:	05 c0       	rjmp	.+10     	; 0x142a <main+0x972>
}

static uint8_t calcGenericLevel(uint8_t adcInput, uint16_t minLevel, uint16_t maxLevel) {
	uint16_t level = ((gAnalogInputs[adcInput].high * 100) + gAnalogInputs[adcInput].low);
	if (level > maxLevel) {
		level = 100;
    1420:	64 e6       	ldi	r22, 0x64	; 100
    1422:	70 e0       	ldi	r23, 0x00	; 0
    1424:	02 c0       	rjmp	.+4      	; 0x142a <main+0x972>
		level -= minLevel;
		level *= 100;
		level /= maxLevel - minLevel;
	}
	else {
		level = 0;
    1426:	60 e0       	ldi	r22, 0x00	; 0
    1428:	70 e0       	ldi	r23, 0x00	; 0
	return printNumberWithUnit(str, pos, low, "V");		
}

static uint8_t printRssiLevel(char* const str, uint8_t pos, const uint8_t adcInput) {
	uint8_t rssiLevel = calcRssiLevel(adcInput);
	return printNumberWithUnit(str, pos, rssiLevel, "%");
    142a:	26 2f       	mov	r18, r22
    142c:	30 e0       	ldi	r19, 0x00	; 0
    142e:	40 e0       	ldi	r20, 0x00	; 0
    1430:	50 e0       	ldi	r21, 0x00	; 0
    1432:	8c e9       	ldi	r24, 0x9C	; 156
    1434:	91 e0       	ldi	r25, 0x01	; 1
    1436:	6e e0       	ldi	r22, 0x0E	; 14
    1438:	0f e2       	ldi	r16, 0x2F	; 47
    143a:	11 e0       	ldi	r17, 0x01	; 1
    143c:	dd d7       	rcall	.+4026   	; 0x23f8 <__data_load_end+0x852>
    143e:	b2 c0       	rjmp	.+356    	; 0x15a4 <main+0xaec>
	    pos = printRssiLevel(gText[textId], 14, ANALOG_IN_3);
	  }
#endif //ANALOG_IN_NUMBER == 2

  }
  else if (textId == 2) {
    1440:	82 30       	cpi	r24, 0x02	; 2
    1442:	a9 f4       	brne	.+42     	; 0x146e <main+0x9b6>
#ifdef GPS_ENABLED
	  if (gInfoShow) {
    1444:	80 91 67 01 	lds	r24, 0x0167
    1448:	88 23       	and	r24, r24
    144a:	09 f4       	brne	.+2      	; 0x144e <main+0x996>
    144c:	ab c0       	rjmp	.+342    	; 0x15a4 <main+0xaec>
	    if (gHomePosSet) {
    144e:	80 91 d8 03 	lds	r24, 0x03D8
    1452:	88 23       	and	r24, r24
    1454:	09 f0       	breq	.+2      	; 0x1458 <main+0x9a0>
    1456:	a6 c0       	rjmp	.+332    	; 0x15a4 <main+0xaec>
#ifdef STATISTICS_ENABLED
		    pos = printText(gText[textId], 7, "LOS  SPD TRIP  ALT");
#endif //STATISTICS_ENABLED
	    }
	    else if (gBlink1Hz) {
    1458:	80 91 44 04 	lds	r24, 0x0444
    145c:	88 23       	and	r24, r24
    145e:	09 f4       	brne	.+2      	; 0x1462 <main+0x9aa>
    1460:	a1 c0       	rjmp	.+322    	; 0x15a4 <main+0xaec>
	      pos = printText(gText[textId], 10, "NO HOME POS");
    1462:	8d eb       	ldi	r24, 0xBD	; 189
    1464:	91 e0       	ldi	r25, 0x01	; 1
    1466:	6a e0       	ldi	r22, 0x0A	; 10
    1468:	41 e3       	ldi	r20, 0x31	; 49
    146a:	51 e0       	ldi	r21, 0x01	; 1
    146c:	9a c0       	rjmp	.+308    	; 0x15a2 <main+0xaea>
	  else {
		  //printCompassArrow(gText[textId], 7, gGpsLastValidData.angle, 19);
	  }
#endif //GPS_ENABLED
  }	  
  else if (textId == 3) {
    146e:	83 30       	cpi	r24, 0x03	; 3
    1470:	31 f5       	brne	.+76     	; 0x14be <main+0xa06>
#ifdef GPS_ENABLED
	  if (gInfoShow) {
    1472:	80 91 67 01 	lds	r24, 0x0167
    1476:	88 23       	and	r24, r24
    1478:	09 f4       	brne	.+2      	; 0x147c <main+0x9c4>
    147a:	94 c0       	rjmp	.+296    	; 0x15a4 <main+0xaec>
	    if (gHomePosSet) {
    147c:	80 91 d8 03 	lds	r24, 0x03D8
    1480:	88 23       	and	r24, r24
    1482:	09 f0       	breq	.+2      	; 0x1486 <main+0x9ce>
    1484:	8f c0       	rjmp	.+286    	; 0x15a4 <main+0xaec>
		    printNumber(gText[textId], pos+9, gStatDistTraveled);
		    printNumber(gText[textId], pos+15, gStatMaxAltitude);
#endif //STATISTICS_ENABLED
	    }
	    else {
        pos = printGpsNumber(gText[textId], pos+4, gGpsLastValidData.pos.latitude, 1);
    1486:	20 91 ba 03 	lds	r18, 0x03BA
    148a:	30 91 bb 03 	lds	r19, 0x03BB
    148e:	40 91 bc 03 	lds	r20, 0x03BC
    1492:	50 91 bd 03 	lds	r21, 0x03BD
    1496:	8e ed       	ldi	r24, 0xDE	; 222
    1498:	91 e0       	ldi	r25, 0x01	; 1
    149a:	64 e0       	ldi	r22, 0x04	; 4
    149c:	01 e0       	ldi	r16, 0x01	; 1
    149e:	e8 d7       	rcall	.+4048   	; 0x2470 <__data_load_end+0x8ca>
        pos = printGpsNumber(gText[textId], pos+2, gGpsLastValidData.pos.longitude, 0);
    14a0:	68 2f       	mov	r22, r24
    14a2:	6e 5f       	subi	r22, 0xFE	; 254
    14a4:	20 91 be 03 	lds	r18, 0x03BE
    14a8:	30 91 bf 03 	lds	r19, 0x03BF
    14ac:	40 91 c0 03 	lds	r20, 0x03C0
    14b0:	50 91 c1 03 	lds	r21, 0x03C1
    14b4:	8e ed       	ldi	r24, 0xDE	; 222
    14b6:	91 e0       	ldi	r25, 0x01	; 1
    14b8:	00 e0       	ldi	r16, 0x00	; 0
    14ba:	da d7       	rcall	.+4020   	; 0x2470 <__data_load_end+0x8ca>
    14bc:	73 c0       	rjmp	.+230    	; 0x15a4 <main+0xaec>
	  else {
		  //printCompass(gText[textId], 7, gGpsLastValidData.angle, 19);
	  }
#endif //GPS_ENABLED
	}
	else if (textId == 4) {
    14be:	84 30       	cpi	r24, 0x04	; 4
    14c0:	09 f0       	breq	.+2      	; 0x14c4 <main+0xa0c>
    14c2:	48 c0       	rjmp	.+144    	; 0x1554 <main+0xa9c>
#ifdef GPS_ENABLED
    if (!gAlarmSpeed || gBlink1Hz) {
	    pos = printNumber(gText[textId], 0, gGpsLastValidData.speed);
    14c4:	20 91 ca 03 	lds	r18, 0x03CA
    14c8:	30 91 cb 03 	lds	r19, 0x03CB
    14cc:	40 e0       	ldi	r20, 0x00	; 0
    14ce:	50 e0       	ldi	r21, 0x00	; 0
    14d0:	8f ef       	ldi	r24, 0xFF	; 255
    14d2:	91 e0       	ldi	r25, 0x01	; 1
    14d4:	60 e0       	ldi	r22, 0x00	; 0
    14d6:	ca d6       	rcall	.+3476   	; 0x226c <__data_load_end+0x6c6>
	  }		
    if (!gHomePosSet) {
    14d8:	80 91 d8 03 	lds	r24, 0x03D8
    14dc:	88 23       	and	r24, r24
    14de:	39 f4       	brne	.+14     	; 0x14ee <main+0xa36>
		  pos = printText(gText[textId], 5, "-");
    14e0:	8f ef       	ldi	r24, 0xFF	; 255
    14e2:	91 e0       	ldi	r25, 0x01	; 1
    14e4:	65 e0       	ldi	r22, 0x05	; 5
    14e6:	4d e3       	ldi	r20, 0x3D	; 61
    14e8:	51 e0       	ldi	r21, 0x01	; 1
    14ea:	66 d7       	rcall	.+3788   	; 0x23b8 <__data_load_end+0x812>
    14ec:	0c c0       	rjmp	.+24     	; 0x1506 <main+0xa4e>
	  }
	  else {
		  if (!gAlarmDistance || gBlink1Hz) {
		    pos = printNumber(gText[textId], 5, gHomeDistance);
    14ee:	20 91 2e 04 	lds	r18, 0x042E
    14f2:	30 91 2f 04 	lds	r19, 0x042F
    14f6:	40 91 30 04 	lds	r20, 0x0430
    14fa:	50 91 31 04 	lds	r21, 0x0431
    14fe:	8f ef       	ldi	r24, 0xFF	; 255
    1500:	91 e0       	ldi	r25, 0x01	; 1
    1502:	65 e0       	ldi	r22, 0x05	; 5
    1504:	b3 d6       	rcall	.+3430   	; 0x226c <__data_load_end+0x6c6>
		  }			
	  }		  
		if (gGpsLastValidData.fix) {
    1506:	80 91 c8 03 	lds	r24, 0x03C8
    150a:	88 23       	and	r24, r24
    150c:	51 f0       	breq	.+20     	; 0x1522 <main+0xa6a>
		  pos = printNumber(gText[textId], TEXT_LINE_MAX_CHARS-10, gGpsLastValidData.sats);
    150e:	20 91 c9 03 	lds	r18, 0x03C9
    1512:	30 e0       	ldi	r19, 0x00	; 0
    1514:	40 e0       	ldi	r20, 0x00	; 0
    1516:	50 e0       	ldi	r21, 0x00	; 0
    1518:	8f ef       	ldi	r24, 0xFF	; 255
    151a:	91 e0       	ldi	r25, 0x01	; 1
    151c:	67 e1       	ldi	r22, 0x17	; 23
    151e:	a6 d6       	rcall	.+3404   	; 0x226c <__data_load_end+0x6c6>
    1520:	06 c0       	rjmp	.+12     	; 0x152e <main+0xa76>
		}
		else {			
		  pos = printText(gText[textId], TEXT_LINE_MAX_CHARS-10, "-");
    1522:	8f ef       	ldi	r24, 0xFF	; 255
    1524:	91 e0       	ldi	r25, 0x01	; 1
    1526:	67 e1       	ldi	r22, 0x17	; 23
    1528:	4d e3       	ldi	r20, 0x3D	; 61
    152a:	51 e0       	ldi	r21, 0x01	; 1
    152c:	45 d7       	rcall	.+3722   	; 0x23b8 <__data_load_end+0x812>
	  }
	  if (!gAlarmAltitude || gBlink1Hz) {
		  pos = printNumber(gText[textId], TEXT_LINE_MAX_CHARS-5, gGpsLastValidData.pos.altitude - gHomePos.altitude);
    152e:	20 91 c2 03 	lds	r18, 0x03C2
    1532:	30 91 c3 03 	lds	r19, 0x03C3
    1536:	80 91 e1 03 	lds	r24, 0x03E1
    153a:	90 91 e2 03 	lds	r25, 0x03E2
    153e:	28 1b       	sub	r18, r24
    1540:	39 0b       	sbc	r19, r25
    1542:	44 27       	eor	r20, r20
    1544:	37 fd       	sbrc	r19, 7
    1546:	40 95       	com	r20
    1548:	54 2f       	mov	r21, r20
    154a:	8f ef       	ldi	r24, 0xFF	; 255
    154c:	91 e0       	ldi	r25, 0x01	; 1
    154e:	6c e1       	ldi	r22, 0x1C	; 28
    1550:	8d d6       	rcall	.+3354   	; 0x226c <__data_load_end+0x6c6>
    1552:	28 c0       	rjmp	.+80     	; 0x15a4 <main+0xaec>
	  }		  
#endif //GPS_ENABLED
	}
	else if (textId == 5) {
#ifdef GPS_ENABLED
		pos = printText(gText[textId], 0, "SPD");
    1554:	80 e2       	ldi	r24, 0x20	; 32
    1556:	92 e0       	ldi	r25, 0x02	; 2
    1558:	60 e0       	ldi	r22, 0x00	; 0
    155a:	4f e3       	ldi	r20, 0x3F	; 63
    155c:	51 e0       	ldi	r21, 0x01	; 1
    155e:	2c d7       	rcall	.+3672   	; 0x23b8 <__data_load_end+0x812>
		pos = printText(gText[textId], 5, "LOS");
    1560:	80 e2       	ldi	r24, 0x20	; 32
    1562:	92 e0       	ldi	r25, 0x02	; 2
    1564:	65 e0       	ldi	r22, 0x05	; 5
    1566:	43 e4       	ldi	r20, 0x43	; 67
    1568:	51 e0       	ldi	r21, 0x01	; 1
    156a:	26 d7       	rcall	.+3660   	; 0x23b8 <__data_load_end+0x812>
		
		if (gHomePosSet) {
    156c:	90 91 d8 03 	lds	r25, 0x03D8
    1570:	68 2f       	mov	r22, r24
    1572:	6d 5f       	subi	r22, 0xFD	; 253
    1574:	99 23       	and	r25, r25
    1576:	29 f0       	breq	.+10     	; 0x1582 <main+0xaca>
		  pos = printText(gText[textId], pos+3, "\146");
    1578:	80 e2       	ldi	r24, 0x20	; 32
    157a:	92 e0       	ldi	r25, 0x02	; 2
    157c:	47 e4       	ldi	r20, 0x47	; 71
    157e:	51 e0       	ldi	r21, 0x01	; 1
    1580:	04 c0       	rjmp	.+8      	; 0x158a <main+0xad2>
		}
		else {
			pos = printText(gText[textId], pos+3, "\147");
    1582:	80 e2       	ldi	r24, 0x20	; 32
    1584:	92 e0       	ldi	r25, 0x02	; 2
    1586:	49 e4       	ldi	r20, 0x49	; 73
    1588:	51 e0       	ldi	r21, 0x01	; 1
    158a:	16 d7       	rcall	.+3628   	; 0x23b8 <__data_load_end+0x812>
		}
		
		pos = printText(gText[textId], TEXT_LINE_MAX_CHARS-10, "\150");
    158c:	80 e2       	ldi	r24, 0x20	; 32
    158e:	92 e0       	ldi	r25, 0x02	; 2
    1590:	67 e1       	ldi	r22, 0x17	; 23
    1592:	4b e4       	ldi	r20, 0x4B	; 75
    1594:	51 e0       	ldi	r21, 0x01	; 1
    1596:	10 d7       	rcall	.+3616   	; 0x23b8 <__data_load_end+0x812>
		pos = printText(gText[textId], TEXT_LINE_MAX_CHARS-5, "ALT");
    1598:	80 e2       	ldi	r24, 0x20	; 32
    159a:	92 e0       	ldi	r25, 0x02	; 2
    159c:	6c e1       	ldi	r22, 0x1C	; 28
    159e:	4d e4       	ldi	r20, 0x4D	; 77
    15a0:	51 e0       	ldi	r21, 0x01	; 1
    15a2:	0a d7       	rcall	.+3604   	; 0x23b8 <__data_load_end+0x812>
    15a4:	08 94       	sec
    15a6:	81 1c       	adc	r8, r1
    15a8:	91 1c       	adc	r9, r1
    15aa:	41 e2       	ldi	r20, 0x21	; 33
    15ac:	50 e0       	ldi	r21, 0x00	; 0
    15ae:	e4 0e       	add	r14, r20
    15b0:	f5 1e       	adc	r15, r21
#ifdef TIME_ENABLED
	updateTime();
#endif //TIMEENABLED

#ifdef TEXT_ENABLED
  for (uint8_t i = 0; i < TEXT_LINES; ++i) {
    15b2:	56 e0       	ldi	r21, 0x06	; 6
    15b4:	85 16       	cp	r8, r21
    15b6:	91 04       	cpc	r9, r1
    15b8:	29 f4       	brne	.+10     	; 0x15c4 <main+0xb0c>
    15ba:	21 e6       	ldi	r18, 0x61	; 97
    15bc:	33 e0       	ldi	r19, 0x03	; 3
#endif //GRAPICSENABLED
}

void main(void) __attribute__ ((noreturn)); // Main never returns, saves a few bytes

void main(void) {
    15be:	80 e0       	ldi	r24, 0x00	; 0
    15c0:	90 e0       	ldi	r25, 0x00	; 0
    15c2:	16 c0       	rjmp	.+44     	; 0x15f0 <main+0xb38>
    15c4:	f4 01       	movw	r30, r8
    15c6:	55 e0       	ldi	r21, 0x05	; 5
    15c8:	ee 0f       	add	r30, r30
    15ca:	ff 1f       	adc	r31, r31
    15cc:	5a 95       	dec	r21
    15ce:	e1 f7       	brne	.-8      	; 0x15c8 <main+0xb10>
    15d0:	e8 0d       	add	r30, r8
    15d2:	f9 1d       	adc	r31, r9
    15d4:	e5 58       	subi	r30, 0x85	; 133
    15d6:	fe 4f       	sbci	r31, 0xFE	; 254
    15d8:	b4 ce       	rjmp	.-664    	; 0x1342 <main+0x88a>
// Functions

static void clearGraphics() {
	for (uint8_t x = 0; x < GRAPHICS_WIDTH; ++x) {
	  for (uint8_t y = 0; y < GRAPHICS_HEIGHT; ++y) {
			gPixelData[x][y] = 0x00;
    15da:	11 92       	st	Z+, r1

// Functions

static void clearGraphics() {
	for (uint8_t x = 0; x < GRAPHICS_WIDTH; ++x) {
	  for (uint8_t y = 0; y < GRAPHICS_HEIGHT; ++y) {
    15dc:	e2 17       	cp	r30, r18
    15de:	f3 07       	cpc	r31, r19
    15e0:	e1 f7       	brne	.-8      	; 0x15da <main+0xb22>
    15e2:	01 96       	adiw	r24, 0x01	; 1
    15e4:	9f 01       	movw	r18, r30
    15e6:	28 5e       	subi	r18, 0xE8	; 232
    15e8:	3f 4f       	sbci	r19, 0xFF	; 255
static uint8_t gPixelData[GRAPHICS_WIDTH][GRAPHICS_HEIGHT];

// Functions

static void clearGraphics() {
	for (uint8_t x = 0; x < GRAPHICS_WIDTH; ++x) {
    15ea:	83 30       	cpi	r24, 0x03	; 3
    15ec:	91 05       	cpc	r25, r1
    15ee:	69 f0       	breq	.+26     	; 0x160a <main+0xb52>
    15f0:	fc 01       	movw	r30, r24
    15f2:	ee 0f       	add	r30, r30
    15f4:	ff 1f       	adc	r31, r31
    15f6:	e8 0f       	add	r30, r24
    15f8:	f9 1f       	adc	r31, r25
    15fa:	03 e0       	ldi	r16, 0x03	; 3
    15fc:	ee 0f       	add	r30, r30
    15fe:	ff 1f       	adc	r31, r31
    1600:	0a 95       	dec	r16
    1602:	e1 f7       	brne	.-8      	; 0x15fc <main+0xb44>
    1604:	e7 5b       	subi	r30, 0xB7	; 183
    1606:	fc 4f       	sbci	r31, 0xFC	; 252
    1608:	e8 cf       	rjmp	.-48     	; 0x15da <main+0xb22>
}
#endif //TEXT_ENABLED

static void updateGrapics() {
#ifdef GPS_ENABLED
  drawArrow(gHomeBearing - gGpsLastValidData.angle);
    160a:	e0 90 32 04 	lds	r14, 0x0432
    160e:	f0 90 33 04 	lds	r15, 0x0433
    1612:	80 91 cc 03 	lds	r24, 0x03CC
    1616:	90 91 cd 03 	lds	r25, 0x03CD
    161a:	e8 1a       	sub	r14, r24
    161c:	f9 0a       	sbc	r15, r25
		}
	}				 
}

static void drawArrow(uint16_t angle) {
	drawCircle(GRAPHICS_MID, GRAPHICS_MID, GRAPHICS_MID);
    161e:	8b e0       	ldi	r24, 0x0B	; 11
    1620:	63 d9       	rcall	.-3386   	; 0x8e8 <drawCircle.clone.1>
	if (gHomeDistance < 10) {
    1622:	80 91 2e 04 	lds	r24, 0x042E
    1626:	90 91 2f 04 	lds	r25, 0x042F
    162a:	a0 91 30 04 	lds	r26, 0x0430
    162e:	b0 91 31 04 	lds	r27, 0x0431
    1632:	8a 30       	cpi	r24, 0x0A	; 10
    1634:	91 05       	cpc	r25, r1
    1636:	a1 05       	cpc	r26, r1
    1638:	b1 05       	cpc	r27, r1
    163a:	18 f4       	brcc	.+6      	; 0x1642 <main+0xb8a>
	  drawCircle(GRAPHICS_MID, GRAPHICS_MID, 2);
    163c:	82 e0       	ldi	r24, 0x02	; 2
    163e:	54 d9       	rcall	.-3416   	; 0x8e8 <drawCircle.clone.1>
    1640:	8b ca       	rjmp	.-2794   	; 0xb58 <main+0xa0>
	  return;
	}
	if (gGpsLastValidData.speed < HOME_FIX_MIN_SPEED || gGpsLastData.fix == 0) {
    1642:	80 91 ca 03 	lds	r24, 0x03CA
    1646:	90 91 cb 03 	lds	r25, 0x03CB
    164a:	8a 30       	cpi	r24, 0x0A	; 10
    164c:	91 05       	cpc	r25, r1
    164e:	20 f0       	brcs	.+8      	; 0x1658 <main+0xba0>
    1650:	80 91 a1 03 	lds	r24, 0x03A1
    1654:	88 23       	and	r24, r24
    1656:	51 f4       	brne	.+20     	; 0x166c <main+0xbb4>
		drawLine(GRAPHICS_MID - (GRAPHICS_SIZE/4), GRAPHICS_MID - (GRAPHICS_SIZE/4), GRAPHICS_MID + (GRAPHICS_SIZE/4), GRAPHICS_MID + (GRAPHICS_SIZE/4));
    1658:	85 e0       	ldi	r24, 0x05	; 5
    165a:	65 e0       	ldi	r22, 0x05	; 5
    165c:	41 e1       	ldi	r20, 0x11	; 17
    165e:	21 e1       	ldi	r18, 0x11	; 17
    1660:	c7 d9       	rcall	.-3186   	; 0x9f0 <drawLine>
		drawLine(GRAPHICS_MID - (GRAPHICS_SIZE/4), GRAPHICS_MID + (GRAPHICS_SIZE/4), GRAPHICS_MID + (GRAPHICS_SIZE/4), GRAPHICS_MID - (GRAPHICS_SIZE/4));
    1662:	85 e0       	ldi	r24, 0x05	; 5
    1664:	61 e1       	ldi	r22, 0x11	; 17
    1666:	41 e1       	ldi	r20, 0x11	; 17
    1668:	25 e0       	ldi	r18, 0x05	; 5
    166a:	51 c0       	rjmp	.+162    	; 0x170e <main+0xc56>
    166c:	c7 01       	movw	r24, r14
    166e:	86 5a       	subi	r24, 0xA6	; 166
    1670:	9f 4f       	sbci	r25, 0xFF	; 255
    1672:	2a d5       	rcall	.+2644   	; 0x20c8 <__data_load_end+0x522>
    1674:	08 2f       	mov	r16, r24
		return;
	}
	int16_t a = myCos(angle);
	int16_t b = mySin(angle);
    1676:	c7 01       	movw	r24, r14
    1678:	27 d5       	rcall	.+2638   	; 0x20c8 <__data_load_end+0x522>
    167a:	e8 2f       	mov	r30, r24
	if (gGpsLastValidData.speed < HOME_FIX_MIN_SPEED || gGpsLastData.fix == 0) {
		drawLine(GRAPHICS_MID - (GRAPHICS_SIZE/4), GRAPHICS_MID - (GRAPHICS_SIZE/4), GRAPHICS_MID + (GRAPHICS_SIZE/4), GRAPHICS_MID + (GRAPHICS_SIZE/4));
		drawLine(GRAPHICS_MID - (GRAPHICS_SIZE/4), GRAPHICS_MID + (GRAPHICS_SIZE/4), GRAPHICS_MID + (GRAPHICS_SIZE/4), GRAPHICS_MID - (GRAPHICS_SIZE/4));
		return;
	}
	int16_t a = myCos(angle);
    167c:	40 2f       	mov	r20, r16
    167e:	55 27       	eor	r21, r21
    1680:	47 fd       	sbrc	r20, 7
    1682:	50 95       	com	r21
	int16_t b = mySin(angle);
	a = (a * (GRAPHICS_SIZE / 3)) / 100;
    1684:	13 e0       	ldi	r17, 0x03	; 3
    1686:	44 0f       	add	r20, r20
    1688:	55 1f       	adc	r21, r21
    168a:	1a 95       	dec	r17
    168c:	e1 f7       	brne	.-8      	; 0x1686 <main+0xbce>
    168e:	24 e6       	ldi	r18, 0x64	; 100
    1690:	30 e0       	ldi	r19, 0x00	; 0
    1692:	ca 01       	movw	r24, r20
    1694:	b9 01       	movw	r22, r18
    1696:	c3 d1       	rcall	.+902    	; 0x1a1e <__divmodhi4>
    1698:	8b 01       	movw	r16, r22
		drawLine(GRAPHICS_MID - (GRAPHICS_SIZE/4), GRAPHICS_MID - (GRAPHICS_SIZE/4), GRAPHICS_MID + (GRAPHICS_SIZE/4), GRAPHICS_MID + (GRAPHICS_SIZE/4));
		drawLine(GRAPHICS_MID - (GRAPHICS_SIZE/4), GRAPHICS_MID + (GRAPHICS_SIZE/4), GRAPHICS_MID + (GRAPHICS_SIZE/4), GRAPHICS_MID - (GRAPHICS_SIZE/4));
		return;
	}
	int16_t a = myCos(angle);
	int16_t b = mySin(angle);
    169a:	8e 2f       	mov	r24, r30
    169c:	99 27       	eor	r25, r25
    169e:	87 fd       	sbrc	r24, 7
    16a0:	90 95       	com	r25
	a = (a * (GRAPHICS_SIZE / 3)) / 100;
	b = (b * (GRAPHICS_SIZE / 3)) / 100;
    16a2:	b3 e0       	ldi	r27, 0x03	; 3
    16a4:	88 0f       	add	r24, r24
    16a6:	99 1f       	adc	r25, r25
    16a8:	ba 95       	dec	r27
    16aa:	e1 f7       	brne	.-8      	; 0x16a4 <main+0xbec>
    16ac:	b9 01       	movw	r22, r18
    16ae:	b7 d1       	rcall	.+878    	; 0x1a1e <__divmodhi4>
    16b0:	5b 01       	movw	r10, r22
	drawLine(GRAPHICS_MID - b, GRAPHICS_MID + a, GRAPHICS_MID + b, GRAPHICS_MID - a); //Direction line
    16b2:	60 2f       	mov	r22, r16
    16b4:	ab e0       	ldi	r26, 0x0B	; 11
    16b6:	ca 2e       	mov	r12, r26
    16b8:	ca 0c       	add	r12, r10
    16ba:	8b e0       	ldi	r24, 0x0B	; 11
    16bc:	e8 2e       	mov	r14, r24
    16be:	e0 1a       	sub	r14, r16
    16c0:	65 5f       	subi	r22, 0xF5	; 245
    16c2:	8a 19       	sub	r24, r10
    16c4:	4c 2d       	mov	r20, r12
    16c6:	2e 2d       	mov	r18, r14
    16c8:	93 d9       	rcall	.-3290   	; 0x9f0 <drawLine>
	//drawLine(GRAPHICS_MID_X + a/2, GRAPHICS_MID_X + b/2, GRAPHICS_MID_X - a/2, GRAPHICS_MID_X - b/2); //Arrow bottom line
	drawLine(GRAPHICS_MID + b, GRAPHICS_MID - a, GRAPHICS_MID - a/2, GRAPHICS_MID - b/2); // Arrow "wings"
    16ca:	f2 e0       	ldi	r31, 0x02	; 2
    16cc:	8f 2e       	mov	r8, r31
    16ce:	91 2c       	mov	r9, r1
    16d0:	c8 01       	movw	r24, r16
    16d2:	b4 01       	movw	r22, r8
    16d4:	a4 d1       	rcall	.+840    	; 0x1a1e <__divmodhi4>
    16d6:	70 95       	com	r23
    16d8:	61 95       	neg	r22
    16da:	7f 4f       	sbci	r23, 0xFF	; 255
    16dc:	46 2f       	mov	r20, r22
    16de:	45 5f       	subi	r20, 0xF5	; 245
    16e0:	c5 01       	movw	r24, r10
    16e2:	b4 01       	movw	r22, r8
    16e4:	9c d1       	rcall	.+824    	; 0x1a1e <__divmodhi4>
    16e6:	70 95       	com	r23
    16e8:	61 95       	neg	r22
    16ea:	7f 4f       	sbci	r23, 0xFF	; 255
    16ec:	26 2f       	mov	r18, r22
    16ee:	25 5f       	subi	r18, 0xF5	; 245
    16f0:	8c 2d       	mov	r24, r12
    16f2:	6e 2d       	mov	r22, r14
    16f4:	7d d9       	rcall	.-3334   	; 0x9f0 <drawLine>
	drawLine(GRAPHICS_MID + b, GRAPHICS_MID - a, GRAPHICS_MID + a/2, GRAPHICS_MID + b/2);
    16f6:	c8 01       	movw	r24, r16
    16f8:	b4 01       	movw	r22, r8
    16fa:	91 d1       	rcall	.+802    	; 0x1a1e <__divmodhi4>
    16fc:	46 2f       	mov	r20, r22
    16fe:	45 5f       	subi	r20, 0xF5	; 245
    1700:	c5 01       	movw	r24, r10
    1702:	b4 01       	movw	r22, r8
    1704:	8c d1       	rcall	.+792    	; 0x1a1e <__divmodhi4>
    1706:	26 2f       	mov	r18, r22
    1708:	25 5f       	subi	r18, 0xF5	; 245
    170a:	8c 2d       	mov	r24, r12
    170c:	6e 2d       	mov	r22, r14
    170e:	70 d9       	rcall	.-3360   	; 0x9f0 <drawLine>
    1710:	23 ca       	rjmp	.-3002   	; 0xb58 <main+0xa0>

00001712 <__vector_1>:
			//DDRB &= ~OUT1;
		}
	}
}

ISR(INT0_vect) {
    1712:	1f 92       	push	r1
    1714:	0f 92       	push	r0
    1716:	0f b6       	in	r0, 0x3f	; 63
    1718:	0f 92       	push	r0
    171a:	11 24       	eor	r1, r1
    171c:	2f 93       	push	r18
    171e:	3f 93       	push	r19
    1720:	4f 93       	push	r20
    1722:	5f 93       	push	r21
    1724:	6f 93       	push	r22
    1726:	7f 93       	push	r23
    1728:	8f 93       	push	r24
    172a:	9f 93       	push	r25
    172c:	af 93       	push	r26
    172e:	bf 93       	push	r27
    1730:	ef 93       	push	r30
    1732:	ff 93       	push	r31
	#else
		//round up by default
		__ticks_dc = (uint32_t)(ceil(fabs(__tmp)));
	#endif

	__builtin_avr_delay_cycles(__ticks_dc);
    1734:	88 e2       	ldi	r24, 0x28	; 40
    1736:	8a 95       	dec	r24
    1738:	f1 f7       	brne	.-4      	; 0x1736 <__vector_1+0x24>
    173a:	80 91 72 01 	lds	r24, 0x0172
    173e:	90 91 73 01 	lds	r25, 0x0173
}  

static void updateLine() {
  _delay_us(5); // wait 5us to see if H or V sync

	if(!(PIND & LTRIG)) { // H sync
    1742:	4a 99       	sbic	0x09, 2	; 9
    1744:	f2 c0       	rjmp	.+484    	; 0x192a <__vector_1+0x218>
		if (gActiveLine != 0) {
    1746:	00 97       	sbiw	r24, 0x00	; 0
    1748:	09 f4       	brne	.+2      	; 0x174c <__vector_1+0x3a>
    174a:	7f c0       	rjmp	.+254    	; 0x184a <__vector_1+0x138>
			switch(gLineType) {
    174c:	80 91 75 01 	lds	r24, 0x0175
    1750:	81 30       	cpi	r24, 0x01	; 1
    1752:	21 f0       	breq	.+8      	; 0x175c <__vector_1+0x4a>
    1754:	82 30       	cpi	r24, 0x02	; 2
    1756:	09 f0       	breq	.+2      	; 0x175a <__vector_1+0x48>
    1758:	78 c0       	rjmp	.+240    	; 0x184a <__vector_1+0x138>
    175a:	4a c0       	rjmp	.+148    	; 0x17f0 <__vector_1+0xde>
				case LINE_TYPE_TEXT:
#ifdef TEXT_ENABLED				
					drawTextLine(gActiveTextId);
    175c:	90 91 76 01 	lds	r25, 0x0176
    1760:	e8 e1       	ldi	r30, 0x18	; 24
    1762:	ea 95       	dec	r30
    1764:	f1 f7       	brne	.-4      	; 0x1762 <__vector_1+0x50>
static void drawTextLine(uint8_t textId)
{
	_delay_us(3);
	uint8_t currLine = gActivePixmapLine;
	for (uint8_t i = 0; i < TEXT_LINE_MAX_CHARS; ++i) {
		if (gText[textId][i] != ' ' && gText[textId][i] != 0) {
    1766:	29 2f       	mov	r18, r25
    1768:	30 e0       	ldi	r19, 0x00	; 0
    176a:	f9 01       	movw	r30, r18
    176c:	b5 e0       	ldi	r27, 0x05	; 5
    176e:	ee 0f       	add	r30, r30
    1770:	ff 1f       	adc	r31, r31
    1772:	ba 95       	dec	r27
    1774:	e1 f7       	brne	.-8      	; 0x176e <__vector_1+0x5c>
    1776:	e2 0f       	add	r30, r18
    1778:	f3 1f       	adc	r31, r19
    177a:	e5 58       	subi	r30, 0x85	; 133
    177c:	fe 4f       	sbci	r31, 0xFE	; 254
		}
		else {
			DDRB &= ~OUT1;
			DELAY_1_NOP();
		}
		SPDR = gTextPixmap[(uint16_t)(currLine)*TEXT_LINE_MAX_CHARS + i];
    177e:	a0 91 7a 01 	lds	r26, 0x017A
    1782:	81 e2       	ldi	r24, 0x21	; 33
    1784:	a8 9f       	mul	r26, r24
    1786:	d0 01       	movw	r26, r0
    1788:	11 24       	eor	r1, r1
    178a:	af 5b       	subi	r26, 0xBF	; 191
    178c:	bd 4f       	sbci	r27, 0xFD	; 253
    178e:	98 9f       	mul	r25, r24
    1790:	c0 01       	movw	r24, r0
    1792:	11 24       	eor	r1, r1
    1794:	84 56       	subi	r24, 0x64	; 100
    1796:	9e 4f       	sbci	r25, 0xFE	; 254
static void drawTextLine(uint8_t textId)
{
	_delay_us(3);
	uint8_t currLine = gActivePixmapLine;
	for (uint8_t i = 0; i < TEXT_LINE_MAX_CHARS; ++i) {
		if (gText[textId][i] != ' ' && gText[textId][i] != 0) {
    1798:	21 91       	ld	r18, Z+
    179a:	20 32       	cpi	r18, 0x20	; 32
    179c:	21 f0       	breq	.+8      	; 0x17a6 <__vector_1+0x94>
    179e:	22 23       	and	r18, r18
    17a0:	11 f0       	breq	.+4      	; 0x17a6 <__vector_1+0x94>
			DDRB |= OUT1;
    17a2:	21 9a       	sbi	0x04, 1	; 4
    17a4:	02 c0       	rjmp	.+4      	; 0x17aa <__vector_1+0x98>
		}
		else {
			DDRB &= ~OUT1;
    17a6:	21 98       	cbi	0x04, 1	; 4
			DELAY_1_NOP();
    17a8:	00 00       	nop
		}
		SPDR = gTextPixmap[(uint16_t)(currLine)*TEXT_LINE_MAX_CHARS + i];
    17aa:	2d 91       	ld	r18, X+
    17ac:	2e bd       	out	0x2e, r18	; 46
	...
		DELAY_4_NOP();
#ifndef TEXT_SMALL_ENABLED
		DELAY_6_NOP();
		DELAY_7_NOP();
    17ce:	00 00       	nop

static void drawTextLine(uint8_t textId)
{
	_delay_us(3);
	uint8_t currLine = gActivePixmapLine;
	for (uint8_t i = 0; i < TEXT_LINE_MAX_CHARS; ++i) {
    17d0:	e8 17       	cp	r30, r24
    17d2:	f9 07       	cpc	r31, r25
    17d4:	09 f7       	brne	.-62     	; 0x1798 <__vector_1+0x86>
	...
		DELAY_6_NOP();
		DELAY_7_NOP();
#endif //TEXT_SMALL_ENABLED	
	}
	DELAY_10_NOP();
	SPDR = 0x00;
    17ea:	1e bc       	out	0x2e, r1	; 46
	DDRB &= ~OUT1;
    17ec:	21 98       	cbi	0x04, 1	; 4
    17ee:	2d c0       	rjmp	.+90     	; 0x184a <__vector_1+0x138>
    17f0:	83 e1       	ldi	r24, 0x13	; 19
    17f2:	91 e0       	ldi	r25, 0x01	; 1
    17f4:	01 97       	sbiw	r24, 0x01	; 1
    17f6:	f1 f7       	brne	.-4      	; 0x17f4 <__vector_1+0xe2>
    17f8:	00 c0       	rjmp	.+0      	; 0x17fa <__vector_1+0xe8>
    17fa:	00 00       	nop
{
#ifdef TEXT_SMALL_ENABLED
	SPSR &= ~(1<<SPI2X); // Set normal speed
#endif //TEXT_SMALL_ENABLED
  _delay_us(GRAPHICS_OFFSET);
  uint16_t currLine = gActivePixmapLine;
    17fc:	e0 91 7a 01 	lds	r30, 0x017A
    1800:	f0 e0       	ldi	r31, 0x00	; 0
    1802:	e7 5b       	subi	r30, 0xB7	; 183
    1804:	fc 4f       	sbci	r31, 0xFC	; 252
  for (uint8_t i = 0; i < GRAPHICS_WIDTH; ++i) {
    1806:	80 e0       	ldi	r24, 0x00	; 0
	  SPDR = gPixelData[i][currLine];
    1808:	90 81       	ld	r25, Z
    180a:	9e bd       	out	0x2e, r25	; 46
	  DDRB |= OUT1;
    180c:	21 9a       	sbi	0x04, 1	; 4
	...
	  DELAY_9_NOP();
	  DELAY_9_NOP();
	  DELAY_5_NOP();
    183a:	00 00       	nop
#ifdef TEXT_SMALL_ENABLED
	SPSR &= ~(1<<SPI2X); // Set normal speed
#endif //TEXT_SMALL_ENABLED
  _delay_us(GRAPHICS_OFFSET);
  uint16_t currLine = gActivePixmapLine;
  for (uint8_t i = 0; i < GRAPHICS_WIDTH; ++i) {
    183c:	8f 5f       	subi	r24, 0xFF	; 255
    183e:	78 96       	adiw	r30, 0x18	; 24
    1840:	83 30       	cpi	r24, 0x03	; 3
    1842:	11 f7       	brne	.-60     	; 0x1808 <__vector_1+0xf6>
	  DDRB |= OUT1;
	  DELAY_9_NOP();
	  DELAY_9_NOP();
	  DELAY_5_NOP();
  }
  DDRB &= ~OUT1;
    1844:	21 98       	cbi	0x04, 1	; 4
  DELAY_1_NOP();
    1846:	00 00       	nop
  SPDR = 0x00;
    1848:	1e bc       	out	0x2e, r1	; 46
					break;
			}
		}
		
		// We save some time in beginning of line by pre-calculating next type.
		gLineType = LINE_TYPE_UNKNOWN; // Default case
    184a:	10 92 75 01 	sts	0x0175, r1
		gActiveLine++;
    184e:	80 91 72 01 	lds	r24, 0x0172
    1852:	90 91 73 01 	lds	r25, 0x0173
    1856:	01 96       	adiw	r24, 0x01	; 1
    1858:	90 93 73 01 	sts	0x0173, r25
    185c:	80 93 72 01 	sts	0x0172, r24
		if (gActiveLine == UPDATE_LINE) {
    1860:	8e 36       	cpi	r24, 0x6E	; 110
    1862:	91 05       	cpc	r25, r1
    1864:	11 f4       	brne	.+4      	; 0x186a <__vector_1+0x158>
			gUpdateScreenData = 1;
    1866:	21 e0       	ldi	r18, 0x01	; 1
    1868:	04 c0       	rjmp	.+8      	; 0x1872 <__vector_1+0x160>
		}
		if (gActiveLine == UPDATE_LINE + 1) {
    186a:	8f 36       	cpi	r24, 0x6F	; 111
    186c:	91 05       	cpc	r25, r1
    186e:	19 f4       	brne	.+6      	; 0x1876 <__vector_1+0x164>
			gUpdateScreenData = 2;
    1870:	22 e0       	ldi	r18, 0x02	; 2
    1872:	20 93 77 01 	sts	0x0177, r18
		}			

#ifdef TEXT_ENABLED	
		if (gActiveLine >= gActiveTextLine && gActiveLine < gActiveTextLastLine) {
    1876:	20 91 78 01 	lds	r18, 0x0178
    187a:	30 91 79 01 	lds	r19, 0x0179
    187e:	82 17       	cp	r24, r18
    1880:	93 07       	cpc	r25, r19
    1882:	a0 f0       	brcs	.+40     	; 0x18ac <__vector_1+0x19a>
    1884:	40 91 51 01 	lds	r20, 0x0151
    1888:	50 91 52 01 	lds	r21, 0x0152
    188c:	84 17       	cp	r24, r20
    188e:	95 07       	cpc	r25, r21
    1890:	68 f4       	brcc	.+26     	; 0x18ac <__vector_1+0x19a>
	    gLineType = LINE_TYPE_TEXT;
    1892:	41 e0       	ldi	r20, 0x01	; 1
    1894:	40 93 75 01 	sts	0x0175, r20
		  gActivePixmapLine = (gActiveLine - gActiveTextLine);
    1898:	82 1b       	sub	r24, r18
    189a:	80 93 7a 01 	sts	0x017A, r24
		  if (gActiveTextSize == TEXT_SIZE_LARGE_MULT) {
    189e:	90 91 53 01 	lds	r25, 0x0153
    18a2:	92 30       	cpi	r25, 0x02	; 2
    18a4:	09 f0       	breq	.+2      	; 0x18a8 <__vector_1+0x196>
    18a6:	48 c0       	rjmp	.+144    	; 0x1938 <__vector_1+0x226>
		    gActivePixmapLine /= TEXT_SIZE_LARGE_MULT;
    18a8:	86 95       	lsr	r24
    18aa:	31 c0       	rjmp	.+98     	; 0x190e <__vector_1+0x1fc>
		  }
		}
		else if (gActiveLine == gActiveTextLastLine) {
    18ac:	20 91 51 01 	lds	r18, 0x0151
    18b0:	30 91 52 01 	lds	r19, 0x0152
    18b4:	82 17       	cp	r24, r18
    18b6:	93 07       	cpc	r25, r19
    18b8:	69 f5       	brne	.+90     	; 0x1914 <__vector_1+0x202>
		  gUpdateScreenData = 2;
    18ba:	82 e0       	ldi	r24, 0x02	; 2
    18bc:	80 93 77 01 	sts	0x0177, r24
			gActiveTextId = (gActiveTextId+1) % TEXT_LINES;
    18c0:	80 91 76 01 	lds	r24, 0x0176
    18c4:	90 e0       	ldi	r25, 0x00	; 0
    18c6:	01 96       	adiw	r24, 0x01	; 1
    18c8:	66 e0       	ldi	r22, 0x06	; 6
    18ca:	70 e0       	ldi	r23, 0x00	; 0
    18cc:	a8 d0       	rcall	.+336    	; 0x1a1e <__divmodhi4>
    18ce:	80 93 76 01 	sts	0x0176, r24
			gActiveTextLine = gTextLines[gActiveTextId];
    18d2:	fc 01       	movw	r30, r24
    18d4:	ee 0f       	add	r30, r30
    18d6:	ff 1f       	adc	r31, r31
    18d8:	ec 5a       	subi	r30, 0xAC	; 172
    18da:	fe 4f       	sbci	r31, 0xFE	; 254
    18dc:	20 81       	ld	r18, Z
    18de:	31 81       	ldd	r19, Z+1	; 0x01
    18e0:	30 93 79 01 	sts	0x0179, r19
    18e4:	20 93 78 01 	sts	0x0178, r18
			gActiveTextSize = gTextLineSizes[gActiveTextId];
    18e8:	80 5a       	subi	r24, 0xA0	; 160
    18ea:	9e 4f       	sbci	r25, 0xFE	; 254
    18ec:	fc 01       	movw	r30, r24
    18ee:	80 81       	ld	r24, Z
    18f0:	80 93 53 01 	sts	0x0153, r24
			gActiveTextLastLine = gActiveTextLine + TEXT_CHAR_HEIGHT * gActiveTextSize;
    18f4:	90 e0       	ldi	r25, 0x00	; 0
    18f6:	e3 e0       	ldi	r30, 0x03	; 3
    18f8:	88 0f       	add	r24, r24
    18fa:	99 1f       	adc	r25, r25
    18fc:	ea 95       	dec	r30
    18fe:	e1 f7       	brne	.-8      	; 0x18f8 <__vector_1+0x1e6>
    1900:	82 0f       	add	r24, r18
    1902:	93 1f       	adc	r25, r19
    1904:	90 93 52 01 	sts	0x0152, r25
    1908:	80 93 51 01 	sts	0x0151, r24
			gActivePixmapLine = 1;
    190c:	81 e0       	ldi	r24, 0x01	; 1
    190e:	80 93 7a 01 	sts	0x017A, r24
    1912:	12 c0       	rjmp	.+36     	; 0x1938 <__vector_1+0x226>
			return;
		}
#endif //TEXT_ENABLED		
#ifdef GRAPICSENABLED		
		else if (gActiveLine >= GRAPHICS_LINE && gActiveLine < (GRAPHICS_LINE + GRAPHICS_HEIGHT)) {
    1914:	9c 01       	movw	r18, r24
    1916:	29 56       	subi	r18, 0x69	; 105
    1918:	30 40       	sbci	r19, 0x00	; 0
    191a:	28 31       	cpi	r18, 0x18	; 24
    191c:	31 05       	cpc	r19, r1
    191e:	60 f4       	brcc	.+24     	; 0x1938 <__vector_1+0x226>
			gLineType = LINE_TYPE_GRAPHICS;
    1920:	22 e0       	ldi	r18, 0x02	; 2
    1922:	20 93 75 01 	sts	0x0175, r18
			gActivePixmapLine = (gActiveLine - GRAPHICS_LINE);
    1926:	89 56       	subi	r24, 0x69	; 105
    1928:	f2 cf       	rjmp	.-28     	; 0x190e <__vector_1+0x1fc>
		}
#endif //GRAPICSENABLED
	}
	else { // V sync
		if(gActiveLine > 200) {
    192a:	89 3c       	cpi	r24, 0xC9	; 201
    192c:	91 05       	cpc	r25, r1
    192e:	20 f0       	brcs	.+8      	; 0x1938 <__vector_1+0x226>
			gActiveLine = 0;
    1930:	10 92 73 01 	sts	0x0173, r1
    1934:	10 92 72 01 	sts	0x0172, r1
	updateLine();
}
    1938:	ff 91       	pop	r31
    193a:	ef 91       	pop	r30
    193c:	bf 91       	pop	r27
    193e:	af 91       	pop	r26
    1940:	9f 91       	pop	r25
    1942:	8f 91       	pop	r24
    1944:	7f 91       	pop	r23
    1946:	6f 91       	pop	r22
    1948:	5f 91       	pop	r21
    194a:	4f 91       	pop	r20
    194c:	3f 91       	pop	r19
    194e:	2f 91       	pop	r18
    1950:	0f 90       	pop	r0
    1952:	0f be       	out	0x3f, r0	; 63
    1954:	0f 90       	pop	r0
    1956:	1f 90       	pop	r1
    1958:	18 95       	reti

0000195a <__vector_13>:

ISR(TIMER1_OVF_vect)
{
    195a:	1f 92       	push	r1
    195c:	0f 92       	push	r0
    195e:	0f b6       	in	r0, 0x3f	; 63
    1960:	0f 92       	push	r0
    1962:	11 24       	eor	r1, r1
    1964:	2f 93       	push	r18
    1966:	3f 93       	push	r19
    1968:	8f 93       	push	r24
    196a:	9f 93       	push	r25
	static uint8_t lastLine = 0;
	if (lastLine == gActiveLine) {
    196c:	80 91 72 01 	lds	r24, 0x0172
    1970:	90 91 73 01 	lds	r25, 0x0173
    1974:	20 91 74 01 	lds	r18, 0x0174
    1978:	30 e0       	ldi	r19, 0x00	; 0
    197a:	28 17       	cp	r18, r24
    197c:	39 07       	cpc	r19, r25
    197e:	21 f4       	brne	.+8      	; 0x1988 <__vector_13+0x2e>
    PORTD ^= LED; // Toggle the LED
    1980:	2b b1       	in	r18, 0x0b	; 11
    1982:	38 e0       	ldi	r19, 0x08	; 8
    1984:	23 27       	eor	r18, r19
    1986:	2b b9       	out	0x0b, r18	; 11
	}
	lastLine = gActiveLine;
    1988:	80 93 74 01 	sts	0x0174, r24
}
    198c:	9f 91       	pop	r25
    198e:	8f 91       	pop	r24
    1990:	3f 91       	pop	r19
    1992:	2f 91       	pop	r18
    1994:	0f 90       	pop	r0
    1996:	0f be       	out	0x3f, r0	; 63
    1998:	0f 90       	pop	r0
    199a:	1f 90       	pop	r1
    199c:	18 95       	reti

0000199e <__mulsi3>:
    199e:	62 9f       	mul	r22, r18
    19a0:	d0 01       	movw	r26, r0
    19a2:	73 9f       	mul	r23, r19
    19a4:	f0 01       	movw	r30, r0
    19a6:	82 9f       	mul	r24, r18
    19a8:	e0 0d       	add	r30, r0
    19aa:	f1 1d       	adc	r31, r1
    19ac:	64 9f       	mul	r22, r20
    19ae:	e0 0d       	add	r30, r0
    19b0:	f1 1d       	adc	r31, r1
    19b2:	92 9f       	mul	r25, r18
    19b4:	f0 0d       	add	r31, r0
    19b6:	83 9f       	mul	r24, r19
    19b8:	f0 0d       	add	r31, r0
    19ba:	74 9f       	mul	r23, r20
    19bc:	f0 0d       	add	r31, r0
    19be:	65 9f       	mul	r22, r21
    19c0:	f0 0d       	add	r31, r0
    19c2:	99 27       	eor	r25, r25
    19c4:	72 9f       	mul	r23, r18
    19c6:	b0 0d       	add	r27, r0
    19c8:	e1 1d       	adc	r30, r1
    19ca:	f9 1f       	adc	r31, r25
    19cc:	63 9f       	mul	r22, r19
    19ce:	b0 0d       	add	r27, r0
    19d0:	e1 1d       	adc	r30, r1
    19d2:	f9 1f       	adc	r31, r25
    19d4:	bd 01       	movw	r22, r26
    19d6:	cf 01       	movw	r24, r30
    19d8:	11 24       	eor	r1, r1
    19da:	08 95       	ret

000019dc <__divmodqi4>:
    19dc:	87 fb       	bst	r24, 7
    19de:	08 2e       	mov	r0, r24
    19e0:	06 26       	eor	r0, r22
    19e2:	87 fd       	sbrc	r24, 7
    19e4:	81 95       	neg	r24
    19e6:	67 fd       	sbrc	r22, 7
    19e8:	61 95       	neg	r22
    19ea:	69 d0       	rcall	.+210    	; 0x1abe <__udivmodqi4>
    19ec:	0e f4       	brtc	.+2      	; 0x19f0 <__divmodqi4_1>
    19ee:	91 95       	neg	r25

000019f0 <__divmodqi4_1>:
    19f0:	07 fc       	sbrc	r0, 7
    19f2:	81 95       	neg	r24

000019f4 <__divmodqi4_exit>:
    19f4:	08 95       	ret

000019f6 <__udivmodhi4>:
    19f6:	aa 1b       	sub	r26, r26
    19f8:	bb 1b       	sub	r27, r27
    19fa:	51 e1       	ldi	r21, 0x11	; 17
    19fc:	07 c0       	rjmp	.+14     	; 0x1a0c <__udivmodhi4_ep>

000019fe <__udivmodhi4_loop>:
    19fe:	aa 1f       	adc	r26, r26
    1a00:	bb 1f       	adc	r27, r27
    1a02:	a6 17       	cp	r26, r22
    1a04:	b7 07       	cpc	r27, r23
    1a06:	10 f0       	brcs	.+4      	; 0x1a0c <__udivmodhi4_ep>
    1a08:	a6 1b       	sub	r26, r22
    1a0a:	b7 0b       	sbc	r27, r23

00001a0c <__udivmodhi4_ep>:
    1a0c:	88 1f       	adc	r24, r24
    1a0e:	99 1f       	adc	r25, r25
    1a10:	5a 95       	dec	r21
    1a12:	a9 f7       	brne	.-22     	; 0x19fe <__udivmodhi4_loop>
    1a14:	80 95       	com	r24
    1a16:	90 95       	com	r25
    1a18:	bc 01       	movw	r22, r24
    1a1a:	cd 01       	movw	r24, r26
    1a1c:	08 95       	ret

00001a1e <__divmodhi4>:
    1a1e:	97 fb       	bst	r25, 7
    1a20:	09 2e       	mov	r0, r25
    1a22:	07 26       	eor	r0, r23
    1a24:	0a d0       	rcall	.+20     	; 0x1a3a <__divmodhi4_neg1>
    1a26:	77 fd       	sbrc	r23, 7
    1a28:	04 d0       	rcall	.+8      	; 0x1a32 <__divmodhi4_neg2>
    1a2a:	e5 df       	rcall	.-54     	; 0x19f6 <__udivmodhi4>
    1a2c:	06 d0       	rcall	.+12     	; 0x1a3a <__divmodhi4_neg1>
    1a2e:	00 20       	and	r0, r0
    1a30:	1a f4       	brpl	.+6      	; 0x1a38 <__divmodhi4_exit>

00001a32 <__divmodhi4_neg2>:
    1a32:	70 95       	com	r23
    1a34:	61 95       	neg	r22
    1a36:	7f 4f       	sbci	r23, 0xFF	; 255

00001a38 <__divmodhi4_exit>:
    1a38:	08 95       	ret

00001a3a <__divmodhi4_neg1>:
    1a3a:	f6 f7       	brtc	.-4      	; 0x1a38 <__divmodhi4_exit>
    1a3c:	90 95       	com	r25
    1a3e:	81 95       	neg	r24
    1a40:	9f 4f       	sbci	r25, 0xFF	; 255
    1a42:	08 95       	ret

00001a44 <__udivmodsi4>:
    1a44:	a1 e2       	ldi	r26, 0x21	; 33
    1a46:	1a 2e       	mov	r1, r26
    1a48:	aa 1b       	sub	r26, r26
    1a4a:	bb 1b       	sub	r27, r27
    1a4c:	fd 01       	movw	r30, r26
    1a4e:	0d c0       	rjmp	.+26     	; 0x1a6a <__udivmodsi4_ep>

00001a50 <__udivmodsi4_loop>:
    1a50:	aa 1f       	adc	r26, r26
    1a52:	bb 1f       	adc	r27, r27
    1a54:	ee 1f       	adc	r30, r30
    1a56:	ff 1f       	adc	r31, r31
    1a58:	a2 17       	cp	r26, r18
    1a5a:	b3 07       	cpc	r27, r19
    1a5c:	e4 07       	cpc	r30, r20
    1a5e:	f5 07       	cpc	r31, r21
    1a60:	20 f0       	brcs	.+8      	; 0x1a6a <__udivmodsi4_ep>
    1a62:	a2 1b       	sub	r26, r18
    1a64:	b3 0b       	sbc	r27, r19
    1a66:	e4 0b       	sbc	r30, r20
    1a68:	f5 0b       	sbc	r31, r21

00001a6a <__udivmodsi4_ep>:
    1a6a:	66 1f       	adc	r22, r22
    1a6c:	77 1f       	adc	r23, r23
    1a6e:	88 1f       	adc	r24, r24
    1a70:	99 1f       	adc	r25, r25
    1a72:	1a 94       	dec	r1
    1a74:	69 f7       	brne	.-38     	; 0x1a50 <__udivmodsi4_loop>
    1a76:	60 95       	com	r22
    1a78:	70 95       	com	r23
    1a7a:	80 95       	com	r24
    1a7c:	90 95       	com	r25
    1a7e:	9b 01       	movw	r18, r22
    1a80:	ac 01       	movw	r20, r24
    1a82:	bd 01       	movw	r22, r26
    1a84:	cf 01       	movw	r24, r30
    1a86:	08 95       	ret

00001a88 <__divmodsi4>:
    1a88:	97 fb       	bst	r25, 7
    1a8a:	09 2e       	mov	r0, r25
    1a8c:	05 26       	eor	r0, r21
    1a8e:	0e d0       	rcall	.+28     	; 0x1aac <__divmodsi4_neg1>
    1a90:	57 fd       	sbrc	r21, 7
    1a92:	04 d0       	rcall	.+8      	; 0x1a9c <__divmodsi4_neg2>
    1a94:	d7 df       	rcall	.-82     	; 0x1a44 <__udivmodsi4>
    1a96:	0a d0       	rcall	.+20     	; 0x1aac <__divmodsi4_neg1>
    1a98:	00 1c       	adc	r0, r0
    1a9a:	38 f4       	brcc	.+14     	; 0x1aaa <__divmodsi4_exit>

00001a9c <__divmodsi4_neg2>:
    1a9c:	50 95       	com	r21
    1a9e:	40 95       	com	r20
    1aa0:	30 95       	com	r19
    1aa2:	21 95       	neg	r18
    1aa4:	3f 4f       	sbci	r19, 0xFF	; 255
    1aa6:	4f 4f       	sbci	r20, 0xFF	; 255
    1aa8:	5f 4f       	sbci	r21, 0xFF	; 255

00001aaa <__divmodsi4_exit>:
    1aaa:	08 95       	ret

00001aac <__divmodsi4_neg1>:
    1aac:	f6 f7       	brtc	.-4      	; 0x1aaa <__divmodsi4_exit>
    1aae:	90 95       	com	r25
    1ab0:	80 95       	com	r24
    1ab2:	70 95       	com	r23
    1ab4:	61 95       	neg	r22
    1ab6:	7f 4f       	sbci	r23, 0xFF	; 255
    1ab8:	8f 4f       	sbci	r24, 0xFF	; 255
    1aba:	9f 4f       	sbci	r25, 0xFF	; 255
    1abc:	08 95       	ret

00001abe <__udivmodqi4>:
    1abe:	99 1b       	sub	r25, r25
    1ac0:	79 e0       	ldi	r23, 0x09	; 9
    1ac2:	04 c0       	rjmp	.+8      	; 0x1acc <__udivmodqi4_ep>

00001ac4 <__udivmodqi4_loop>:
    1ac4:	99 1f       	adc	r25, r25
    1ac6:	96 17       	cp	r25, r22
    1ac8:	08 f0       	brcs	.+2      	; 0x1acc <__udivmodqi4_ep>
    1aca:	96 1b       	sub	r25, r22

00001acc <__udivmodqi4_ep>:
    1acc:	88 1f       	adc	r24, r24
    1ace:	7a 95       	dec	r23
    1ad0:	c9 f7       	brne	.-14     	; 0x1ac4 <__udivmodqi4_loop>
    1ad2:	80 95       	com	r24
    1ad4:	08 95       	ret

00001ad6 <strncmp>:
    1ad6:	fb 01       	movw	r30, r22
    1ad8:	dc 01       	movw	r26, r24
    1ada:	41 50       	subi	r20, 0x01	; 1
    1adc:	50 40       	sbci	r21, 0x00	; 0
    1ade:	30 f0       	brcs	.+12     	; 0x1aec <strncmp+0x16>
    1ae0:	8d 91       	ld	r24, X+
    1ae2:	01 90       	ld	r0, Z+
    1ae4:	80 19       	sub	r24, r0
    1ae6:	19 f4       	brne	.+6      	; 0x1aee <strncmp+0x18>
    1ae8:	00 20       	and	r0, r0
    1aea:	b9 f7       	brne	.-18     	; 0x1ada <strncmp+0x4>
    1aec:	88 1b       	sub	r24, r24
    1aee:	99 0b       	sbc	r25, r25
    1af0:	08 95       	ret

00001af2 <strncpy>:
    1af2:	fb 01       	movw	r30, r22
    1af4:	dc 01       	movw	r26, r24
    1af6:	41 50       	subi	r20, 0x01	; 1
    1af8:	50 40       	sbci	r21, 0x00	; 0
    1afa:	48 f0       	brcs	.+18     	; 0x1b0e <strncpy+0x1c>
    1afc:	01 90       	ld	r0, Z+
    1afe:	0d 92       	st	X+, r0
    1b00:	00 20       	and	r0, r0
    1b02:	c9 f7       	brne	.-14     	; 0x1af6 <strncpy+0x4>
    1b04:	01 c0       	rjmp	.+2      	; 0x1b08 <strncpy+0x16>
    1b06:	1d 92       	st	X+, r1
    1b08:	41 50       	subi	r20, 0x01	; 1
    1b0a:	50 40       	sbci	r21, 0x00	; 0
    1b0c:	e0 f7       	brcc	.-8      	; 0x1b06 <strncpy+0x14>
    1b0e:	08 95       	ret

00001b10 <__eerd_block_m88pa>:
    1b10:	dc 01       	movw	r26, r24
    1b12:	cb 01       	movw	r24, r22

00001b14 <__eerd_blraw_m88pa>:
    1b14:	fc 01       	movw	r30, r24
    1b16:	f9 99       	sbic	0x1f, 1	; 31
    1b18:	fe cf       	rjmp	.-4      	; 0x1b16 <__eerd_blraw_m88pa+0x2>
    1b1a:	06 c0       	rjmp	.+12     	; 0x1b28 <__eerd_blraw_m88pa+0x14>
    1b1c:	f2 bd       	out	0x22, r31	; 34
    1b1e:	e1 bd       	out	0x21, r30	; 33
    1b20:	f8 9a       	sbi	0x1f, 0	; 31
    1b22:	31 96       	adiw	r30, 0x01	; 1
    1b24:	00 b4       	in	r0, 0x20	; 32
    1b26:	0d 92       	st	X+, r0
    1b28:	41 50       	subi	r20, 0x01	; 1
    1b2a:	50 40       	sbci	r21, 0x00	; 0
    1b2c:	b8 f7       	brcc	.-18     	; 0x1b1c <__eerd_blraw_m88pa+0x8>
    1b2e:	08 95       	ret

00001b30 <_exit>:
    1b30:	f8 94       	cli

00001b32 <__stop_program>:
    1b32:	ff cf       	rjmp	.-2      	; 0x1b32 <__stop_program>
